
checkpass:     file format elf64-x86-64


Disassembly of section .init:

0000000000005290 <.init>:
    5290:	48 83 ec 08          	sub    rsp,0x8
    5294:	48 8b 05 25 58 24 00 	mov    rax,QWORD PTR [rip+0x245825]        # 24aac0 <__cxa_finalize@plt+0x2457d0>
    529b:	48 85 c0             	test   rax,rax
    529e:	74 02                	je     52a2 <__fxstat64@plt-0x1e>
    52a0:	ff d0                	call   rax
    52a2:	48 83 c4 08          	add    rsp,0x8
    52a6:	c3                   	ret

Disassembly of section .plt:

00000000000052b0 <__fxstat64@plt-0x10>:
    52b0:	ff 35 c2 56 24 00    	push   QWORD PTR [rip+0x2456c2]        # 24a978 <__cxa_finalize@plt+0x245688>
    52b6:	ff 25 c4 56 24 00    	jmp    QWORD PTR [rip+0x2456c4]        # 24a980 <__cxa_finalize@plt+0x245690>
    52bc:	0f 1f 40 00          	nop    DWORD PTR [rax+0x0]

00000000000052c0 <__fxstat64@plt>:
    52c0:	ff 25 c2 56 24 00    	jmp    QWORD PTR [rip+0x2456c2]        # 24a988 <__cxa_finalize@plt+0x245698>
    52c6:	68 00 00 00 00       	push   0x0
    52cb:	e9 e0 ff ff ff       	jmp    52b0 <__fxstat64@plt-0x10>

00000000000052d0 <__tls_get_addr@plt>:
    52d0:	ff 25 ba 56 24 00    	jmp    QWORD PTR [rip+0x2456ba]        # 24a990 <__cxa_finalize@plt+0x2456a0>
    52d6:	68 01 00 00 00       	push   0x1
    52db:	e9 d0 ff ff ff       	jmp    52b0 <__fxstat64@plt-0x10>

00000000000052e0 <_Unwind_Resume@plt>:
    52e0:	ff 25 b2 56 24 00    	jmp    QWORD PTR [rip+0x2456b2]        # 24a998 <__cxa_finalize@plt+0x2456a8>
    52e6:	68 02 00 00 00       	push   0x2
    52eb:	e9 c0 ff ff ff       	jmp    52b0 <__fxstat64@plt-0x10>

Disassembly of section .plt.got:

00000000000052f0 <__cxa_finalize@plt>:
    52f0:	ff 25 b2 59 24 00    	jmp    QWORD PTR [rip+0x2459b2]        # 24aca8 <__cxa_finalize@plt+0x2459b8>
    52f6:	66 90                	xchg   ax,ax

Disassembly of section .text:

0000000000005300 <.text>:
    5300:	31 ed                	xor    ebp,ebp
    5302:	49 89 d1             	mov    r9,rdx
    5305:	5e                   	pop    rsi
    5306:	48 89 e2             	mov    rdx,rsp
    5309:	48 83 e4 f0          	and    rsp,0xfffffffffffffff0
    530d:	50                   	push   rax
    530e:	54                   	push   rsp
    530f:	4c 8d 05 0a 42 03 00 	lea    r8,[rip+0x3420a]        # 39520 <__cxa_finalize@plt+0x34230>
    5316:	48 8d 0d 93 41 03 00 	lea    rcx,[rip+0x34193]        # 394b0 <__cxa_finalize@plt+0x341c0>
    531d:	48 8d 3d cc 13 00 00 	lea    rdi,[rip+0x13cc]        # 66f0 <__cxa_finalize@plt+0x1400>
    5324:	ff 15 06 58 24 00    	call   QWORD PTR [rip+0x245806]        # 24ab30 <__cxa_finalize@plt+0x245840>
    532a:	f4                   	hlt
    532b:	0f 1f 44 00 00       	nop    DWORD PTR [rax+rax*1+0x0]
    5330:	48 8d 3d 01 5d 24 00 	lea    rdi,[rip+0x245d01]        # 24b038 <__cxa_finalize@plt+0x245d48>
    5337:	55                   	push   rbp
    5338:	48 8d 05 f9 5c 24 00 	lea    rax,[rip+0x245cf9]        # 24b038 <__cxa_finalize@plt+0x245d48>
    533f:	48 39 f8             	cmp    rax,rdi
    5342:	48 89 e5             	mov    rbp,rsp
    5345:	74 19                	je     5360 <__cxa_finalize@plt+0x70>
    5347:	48 8b 05 82 58 24 00 	mov    rax,QWORD PTR [rip+0x245882]        # 24abd0 <__cxa_finalize@plt+0x2458e0>
    534e:	48 85 c0             	test   rax,rax
    5351:	74 0d                	je     5360 <__cxa_finalize@plt+0x70>
    5353:	5d                   	pop    rbp
    5354:	ff e0                	jmp    rax
    5356:	66 2e 0f 1f 84 00 00 	cs nop WORD PTR [rax+rax*1+0x0]
    535d:	00 00 00 
    5360:	5d                   	pop    rbp
    5361:	c3                   	ret
    5362:	0f 1f 40 00          	nop    DWORD PTR [rax+0x0]
    5366:	66 2e 0f 1f 84 00 00 	cs nop WORD PTR [rax+rax*1+0x0]
    536d:	00 00 00 
    5370:	48 8d 3d c1 5c 24 00 	lea    rdi,[rip+0x245cc1]        # 24b038 <__cxa_finalize@plt+0x245d48>
    5377:	48 8d 35 ba 5c 24 00 	lea    rsi,[rip+0x245cba]        # 24b038 <__cxa_finalize@plt+0x245d48>
    537e:	55                   	push   rbp
    537f:	48 29 fe             	sub    rsi,rdi
    5382:	48 89 e5             	mov    rbp,rsp
    5385:	48 c1 fe 03          	sar    rsi,0x3
    5389:	48 89 f0             	mov    rax,rsi
    538c:	48 c1 e8 3f          	shr    rax,0x3f
    5390:	48 01 c6             	add    rsi,rax
    5393:	48 d1 fe             	sar    rsi,1
    5396:	74 18                	je     53b0 <__cxa_finalize@plt+0xc0>
    5398:	48 8b 05 a9 58 24 00 	mov    rax,QWORD PTR [rip+0x2458a9]        # 24ac48 <__cxa_finalize@plt+0x245958>
    539f:	48 85 c0             	test   rax,rax
    53a2:	74 0c                	je     53b0 <__cxa_finalize@plt+0xc0>
    53a4:	5d                   	pop    rbp
    53a5:	ff e0                	jmp    rax
    53a7:	66 0f 1f 84 00 00 00 	nop    WORD PTR [rax+rax*1+0x0]
    53ae:	00 00 
    53b0:	5d                   	pop    rbp
    53b1:	c3                   	ret
    53b2:	0f 1f 40 00          	nop    DWORD PTR [rax+0x0]
    53b6:	66 2e 0f 1f 84 00 00 	cs nop WORD PTR [rax+rax*1+0x0]
    53bd:	00 00 00 
    53c0:	80 3d 71 5c 24 00 00 	cmp    BYTE PTR [rip+0x245c71],0x0        # 24b038 <__cxa_finalize@plt+0x245d48>
    53c7:	75 2f                	jne    53f8 <__cxa_finalize@plt+0x108>
    53c9:	48 83 3d d7 58 24 00 	cmp    QWORD PTR [rip+0x2458d7],0x0        # 24aca8 <__cxa_finalize@plt+0x2459b8>
    53d0:	00 
    53d1:	55                   	push   rbp
    53d2:	48 89 e5             	mov    rbp,rsp
    53d5:	74 0c                	je     53e3 <__cxa_finalize@plt+0xf3>
    53d7:	48 8b 3d 22 5c 24 00 	mov    rdi,QWORD PTR [rip+0x245c22]        # 24b000 <__cxa_finalize@plt+0x245d10>
    53de:	e8 0d ff ff ff       	call   52f0 <__cxa_finalize@plt>
    53e3:	e8 48 ff ff ff       	call   5330 <__cxa_finalize@plt+0x40>
    53e8:	c6 05 49 5c 24 00 01 	mov    BYTE PTR [rip+0x245c49],0x1        # 24b038 <__cxa_finalize@plt+0x245d48>
    53ef:	5d                   	pop    rbp
    53f0:	c3                   	ret
    53f1:	0f 1f 80 00 00 00 00 	nop    DWORD PTR [rax+0x0]
    53f8:	f3 c3                	repz ret
    53fa:	66 0f 1f 44 00 00    	nop    WORD PTR [rax+rax*1+0x0]
    5400:	55                   	push   rbp
    5401:	48 89 e5             	mov    rbp,rsp
    5404:	5d                   	pop    rbp
    5405:	e9 66 ff ff ff       	jmp    5370 <__cxa_finalize@plt+0x80>
    540a:	66 0f 1f 44 00 00    	nop    WORD PTR [rax+rax*1+0x0]
    5410:	41 57                	push   r15
    5412:	41 56                	push   r14
    5414:	41 55                	push   r13
    5416:	41 54                	push   r12
    5418:	53                   	push   rbx
    5419:	49 89 fe             	mov    r14,rdi
    541c:	48 8b 47 10          	mov    rax,QWORD PTR [rdi+0x10]
    5420:	48 85 c0             	test   rax,rax
    5423:	74 3c                	je     5461 <__cxa_finalize@plt+0x171>
    5425:	4d 8b 26             	mov    r12,QWORD PTR [r14]
    5428:	48 c1 e0 03          	shl    rax,0x3
    542c:	4c 8d 3c 40          	lea    r15,[rax+rax*2]
    5430:	31 db                	xor    ebx,ebx
    5432:	4c 8d 2d 77 19 00 00 	lea    r13,[rip+0x1977]        # 6db0 <__cxa_finalize@plt+0x1ac0>
    5439:	e9 0b 00 00 00       	jmp    5449 <__cxa_finalize@plt+0x159>
    543e:	66 90                	xchg   ax,ax
    5440:	48 83 c3 18          	add    rbx,0x18
    5444:	49 39 df             	cmp    r15,rbx
    5447:	74 18                	je     5461 <__cxa_finalize@plt+0x171>
    5449:	49 8b 74 1c 08       	mov    rsi,QWORD PTR [r12+rbx*1+0x8]
    544e:	48 85 f6             	test   rsi,rsi
    5451:	74 ed                	je     5440 <__cxa_finalize@plt+0x150>
    5453:	49 8b 3c 1c          	mov    rdi,QWORD PTR [r12+rbx*1]
    5457:	ba 01 00 00 00       	mov    edx,0x1
    545c:	41 ff d5             	call   r13
    545f:	eb df                	jmp    5440 <__cxa_finalize@plt+0x150>
    5461:	49 8b 46 08          	mov    rax,QWORD PTR [r14+0x8]
    5465:	48 85 c0             	test   rax,rax
    5468:	74 24                	je     548e <__cxa_finalize@plt+0x19e>
    546a:	48 c1 e0 03          	shl    rax,0x3
    546e:	48 8d 34 40          	lea    rsi,[rax+rax*2]
    5472:	48 85 f6             	test   rsi,rsi
    5475:	74 17                	je     548e <__cxa_finalize@plt+0x19e>
    5477:	49 8b 3e             	mov    rdi,QWORD PTR [r14]
    547a:	ba 08 00 00 00       	mov    edx,0x8
    547f:	5b                   	pop    rbx
    5480:	41 5c                	pop    r12
    5482:	41 5d                	pop    r13
    5484:	41 5e                	pop    r14
    5486:	41 5f                	pop    r15
    5488:	ff 25 3a 57 24 00    	jmp    QWORD PTR [rip+0x24573a]        # 24abc8 <__cxa_finalize@plt+0x2458d8>
    548e:	5b                   	pop    rbx
    548f:	41 5c                	pop    r12
    5491:	41 5d                	pop    r13
    5493:	41 5e                	pop    r14
    5495:	41 5f                	pop    r15
    5497:	c3                   	ret
    5498:	0f 1f 84 00 00 00 00 	nop    DWORD PTR [rax+rax*1+0x0]
    549f:	00 
    54a0:	48 8b 77 08          	mov    rsi,QWORD PTR [rdi+0x8]
    54a4:	48 85 f6             	test   rsi,rsi
    54a7:	74 0e                	je     54b7 <__cxa_finalize@plt+0x1c7>
    54a9:	48 8b 3f             	mov    rdi,QWORD PTR [rdi]
    54ac:	ba 01 00 00 00       	mov    edx,0x1
    54b1:	ff 25 11 57 24 00    	jmp    QWORD PTR [rip+0x245711]        # 24abc8 <__cxa_finalize@plt+0x2458d8>
    54b7:	c3                   	ret
    54b8:	0f 1f 84 00 00 00 00 	nop    DWORD PTR [rax+rax*1+0x0]
    54bf:	00 
    54c0:	48 89 f2             	mov    rdx,rsi
    54c3:	48 8b 07             	mov    rax,QWORD PTR [rdi]
    54c6:	48 8b 77 10          	mov    rsi,QWORD PTR [rdi+0x10]
    54ca:	48 89 c7             	mov    rdi,rax
    54cd:	ff 25 75 58 24 00    	jmp    QWORD PTR [rip+0x245875]        # 24ad48 <__cxa_finalize@plt+0x245a58>
    54d3:	66 2e 0f 1f 84 00 00 	cs nop WORD PTR [rax+rax*1+0x0]
    54da:	00 00 00 
    54dd:	0f 1f 00             	nop    DWORD PTR [rax]
    54e0:	48 83 ec 28          	sub    rsp,0x28
    54e4:	0f b6 06             	movzx  eax,BYTE PTR [rsi]
    54e7:	48 c1 e2 08          	shl    rdx,0x8
    54eb:	48 8d 0d 6e 40 03 00 	lea    rcx,[rip+0x3406e]        # 39560 <__cxa_finalize@plt+0x34270>
    54f2:	48 01 d1             	add    rcx,rdx
    54f5:	8a 04 08             	mov    al,BYTE PTR [rax+rcx*1]
    54f8:	88 44 24 08          	mov    BYTE PTR [rsp+0x8],al
    54fc:	0f b6 46 01          	movzx  eax,BYTE PTR [rsi+0x1]
    5500:	8a 04 08             	mov    al,BYTE PTR [rax+rcx*1]
    5503:	88 44 24 09          	mov    BYTE PTR [rsp+0x9],al
    5507:	0f b6 46 02          	movzx  eax,BYTE PTR [rsi+0x2]
    550b:	8a 04 08             	mov    al,BYTE PTR [rax+rcx*1]
    550e:	88 44 24 0a          	mov    BYTE PTR [rsp+0xa],al
    5512:	0f b6 46 03          	movzx  eax,BYTE PTR [rsi+0x3]
    5516:	8a 04 08             	mov    al,BYTE PTR [rax+rcx*1]
    5519:	88 44 24 0b          	mov    BYTE PTR [rsp+0xb],al
    551d:	0f b6 46 04          	movzx  eax,BYTE PTR [rsi+0x4]
    5521:	8a 04 08             	mov    al,BYTE PTR [rax+rcx*1]
    5524:	88 44 24 0c          	mov    BYTE PTR [rsp+0xc],al
    5528:	0f b6 46 05          	movzx  eax,BYTE PTR [rsi+0x5]
    552c:	8a 04 08             	mov    al,BYTE PTR [rax+rcx*1]
    552f:	88 44 24 0d          	mov    BYTE PTR [rsp+0xd],al
    5533:	0f b6 46 06          	movzx  eax,BYTE PTR [rsi+0x6]
    5537:	8a 04 08             	mov    al,BYTE PTR [rax+rcx*1]
    553a:	88 44 24 0e          	mov    BYTE PTR [rsp+0xe],al
    553e:	0f b6 46 07          	movzx  eax,BYTE PTR [rsi+0x7]
    5542:	8a 04 08             	mov    al,BYTE PTR [rax+rcx*1]
    5545:	88 44 24 0f          	mov    BYTE PTR [rsp+0xf],al
    5549:	0f b6 46 08          	movzx  eax,BYTE PTR [rsi+0x8]
    554d:	8a 04 08             	mov    al,BYTE PTR [rax+rcx*1]
    5550:	88 44 24 10          	mov    BYTE PTR [rsp+0x10],al
    5554:	0f b6 46 09          	movzx  eax,BYTE PTR [rsi+0x9]
    5558:	8a 04 08             	mov    al,BYTE PTR [rax+rcx*1]
    555b:	88 44 24 11          	mov    BYTE PTR [rsp+0x11],al
    555f:	0f b6 46 0a          	movzx  eax,BYTE PTR [rsi+0xa]
    5563:	8a 04 08             	mov    al,BYTE PTR [rax+rcx*1]
    5566:	88 44 24 12          	mov    BYTE PTR [rsp+0x12],al
    556a:	0f b6 46 0b          	movzx  eax,BYTE PTR [rsi+0xb]
    556e:	8a 04 08             	mov    al,BYTE PTR [rax+rcx*1]
    5571:	88 44 24 13          	mov    BYTE PTR [rsp+0x13],al
    5575:	0f b6 46 0c          	movzx  eax,BYTE PTR [rsi+0xc]
    5579:	8a 04 08             	mov    al,BYTE PTR [rax+rcx*1]
    557c:	88 44 24 14          	mov    BYTE PTR [rsp+0x14],al
    5580:	0f b6 46 0d          	movzx  eax,BYTE PTR [rsi+0xd]
    5584:	8a 04 08             	mov    al,BYTE PTR [rax+rcx*1]
    5587:	88 44 24 15          	mov    BYTE PTR [rsp+0x15],al
    558b:	0f b6 46 0e          	movzx  eax,BYTE PTR [rsi+0xe]
    558f:	8a 04 08             	mov    al,BYTE PTR [rax+rcx*1]
    5592:	88 44 24 16          	mov    BYTE PTR [rsp+0x16],al
    5596:	0f b6 46 0f          	movzx  eax,BYTE PTR [rsi+0xf]
    559a:	8a 04 08             	mov    al,BYTE PTR [rax+rcx*1]
    559d:	88 44 24 17          	mov    BYTE PTR [rsp+0x17],al
    55a1:	0f b6 46 10          	movzx  eax,BYTE PTR [rsi+0x10]
    55a5:	8a 04 08             	mov    al,BYTE PTR [rax+rcx*1]
    55a8:	88 44 24 18          	mov    BYTE PTR [rsp+0x18],al
    55ac:	0f b6 46 11          	movzx  eax,BYTE PTR [rsi+0x11]
    55b0:	8a 04 08             	mov    al,BYTE PTR [rax+rcx*1]
    55b3:	88 44 24 19          	mov    BYTE PTR [rsp+0x19],al
    55b7:	0f b6 46 12          	movzx  eax,BYTE PTR [rsi+0x12]
    55bb:	8a 04 08             	mov    al,BYTE PTR [rax+rcx*1]
    55be:	88 44 24 1a          	mov    BYTE PTR [rsp+0x1a],al
    55c2:	0f b6 46 13          	movzx  eax,BYTE PTR [rsi+0x13]
    55c6:	8a 04 08             	mov    al,BYTE PTR [rax+rcx*1]
    55c9:	88 44 24 1b          	mov    BYTE PTR [rsp+0x1b],al
    55cd:	0f b6 46 14          	movzx  eax,BYTE PTR [rsi+0x14]
    55d1:	8a 04 08             	mov    al,BYTE PTR [rax+rcx*1]
    55d4:	88 44 24 1c          	mov    BYTE PTR [rsp+0x1c],al
    55d8:	0f b6 46 15          	movzx  eax,BYTE PTR [rsi+0x15]
    55dc:	8a 04 08             	mov    al,BYTE PTR [rax+rcx*1]
    55df:	88 44 24 1d          	mov    BYTE PTR [rsp+0x1d],al
    55e3:	0f b6 46 16          	movzx  eax,BYTE PTR [rsi+0x16]
    55e7:	8a 04 08             	mov    al,BYTE PTR [rax+rcx*1]
    55ea:	88 44 24 1e          	mov    BYTE PTR [rsp+0x1e],al
    55ee:	0f b6 46 17          	movzx  eax,BYTE PTR [rsi+0x17]
    55f2:	8a 04 08             	mov    al,BYTE PTR [rax+rcx*1]
    55f5:	88 44 24 1f          	mov    BYTE PTR [rsp+0x1f],al
    55f9:	0f b6 46 18          	movzx  eax,BYTE PTR [rsi+0x18]
    55fd:	8a 04 08             	mov    al,BYTE PTR [rax+rcx*1]
    5600:	88 44 24 20          	mov    BYTE PTR [rsp+0x20],al
    5604:	0f b6 46 19          	movzx  eax,BYTE PTR [rsi+0x19]
    5608:	8a 04 08             	mov    al,BYTE PTR [rax+rcx*1]
    560b:	88 44 24 21          	mov    BYTE PTR [rsp+0x21],al
    560f:	0f b6 46 1a          	movzx  eax,BYTE PTR [rsi+0x1a]
    5613:	8a 04 08             	mov    al,BYTE PTR [rax+rcx*1]
    5616:	88 44 24 22          	mov    BYTE PTR [rsp+0x22],al
    561a:	0f b6 46 1b          	movzx  eax,BYTE PTR [rsi+0x1b]
    561e:	8a 04 08             	mov    al,BYTE PTR [rax+rcx*1]
    5621:	88 44 24 23          	mov    BYTE PTR [rsp+0x23],al
    5625:	0f b6 46 1c          	movzx  eax,BYTE PTR [rsi+0x1c]
    5629:	8a 04 08             	mov    al,BYTE PTR [rax+rcx*1]
    562c:	88 44 24 24          	mov    BYTE PTR [rsp+0x24],al
    5630:	0f b6 46 1d          	movzx  eax,BYTE PTR [rsi+0x1d]
    5634:	8a 04 08             	mov    al,BYTE PTR [rax+rcx*1]
    5637:	88 44 24 25          	mov    BYTE PTR [rsp+0x25],al
    563b:	0f b6 46 1e          	movzx  eax,BYTE PTR [rsi+0x1e]
    563f:	8a 04 08             	mov    al,BYTE PTR [rax+rcx*1]
    5642:	88 44 24 26          	mov    BYTE PTR [rsp+0x26],al
    5646:	0f b6 46 1f          	movzx  eax,BYTE PTR [rsi+0x1f]
    564a:	8a 04 08             	mov    al,BYTE PTR [rax+rcx*1]
    564d:	88 44 24 27          	mov    BYTE PTR [rsp+0x27],al
    5651:	0f 57 c0             	xorps  xmm0,xmm0
    5654:	0f 11 47 10          	movups XMMWORD PTR [rdi+0x10],xmm0
    5658:	0f 11 07             	movups XMMWORD PTR [rdi],xmm0
    565b:	48 8d 0d 0e 43 03 00 	lea    rcx,[rip+0x3430e]        # 39970 <__cxa_finalize@plt+0x34680>
    5662:	48 8b 44 0a 40       	mov    rax,QWORD PTR [rdx+rcx*1+0x40]
    5667:	48 83 f8 1f          	cmp    rax,0x1f
    566b:	0f 87 cc 02 00 00    	ja     593d <__cxa_finalize@plt+0x64d>
    5671:	8a 44 04 08          	mov    al,BYTE PTR [rsp+rax*1+0x8]
    5675:	88 47 08             	mov    BYTE PTR [rdi+0x8],al
    5678:	48 8b 84 0a c8 00 00 	mov    rax,QWORD PTR [rdx+rcx*1+0xc8]
    567f:	00 
    5680:	48 83 f8 1f          	cmp    rax,0x1f
    5684:	0f 87 b3 02 00 00    	ja     593d <__cxa_finalize@plt+0x64d>
    568a:	8a 44 04 08          	mov    al,BYTE PTR [rsp+rax*1+0x8]
    568e:	88 47 19             	mov    BYTE PTR [rdi+0x19],al
    5691:	48 8b 84 0a d8 00 00 	mov    rax,QWORD PTR [rdx+rcx*1+0xd8]
    5698:	00 
    5699:	48 83 f8 1f          	cmp    rax,0x1f
    569d:	0f 87 9a 02 00 00    	ja     593d <__cxa_finalize@plt+0x64d>
    56a3:	8a 44 04 08          	mov    al,BYTE PTR [rsp+rax*1+0x8]
    56a7:	88 47 1b             	mov    BYTE PTR [rdi+0x1b],al
    56aa:	48 8b 84 0a e0 00 00 	mov    rax,QWORD PTR [rdx+rcx*1+0xe0]
    56b1:	00 
    56b2:	48 83 f8 1f          	cmp    rax,0x1f
    56b6:	0f 87 81 02 00 00    	ja     593d <__cxa_finalize@plt+0x64d>
    56bc:	8a 44 04 08          	mov    al,BYTE PTR [rsp+rax*1+0x8]
    56c0:	88 47 1c             	mov    BYTE PTR [rdi+0x1c],al
    56c3:	48 8b 84 0a 88 00 00 	mov    rax,QWORD PTR [rdx+rcx*1+0x88]
    56ca:	00 
    56cb:	48 83 f8 1f          	cmp    rax,0x1f
    56cf:	0f 87 68 02 00 00    	ja     593d <__cxa_finalize@plt+0x64d>
    56d5:	8a 44 04 08          	mov    al,BYTE PTR [rsp+rax*1+0x8]
    56d9:	88 47 11             	mov    BYTE PTR [rdi+0x11],al
    56dc:	48 8b 44 0a 70       	mov    rax,QWORD PTR [rdx+rcx*1+0x70]
    56e1:	48 83 f8 1f          	cmp    rax,0x1f
    56e5:	0f 87 52 02 00 00    	ja     593d <__cxa_finalize@plt+0x64d>
    56eb:	8a 44 04 08          	mov    al,BYTE PTR [rsp+rax*1+0x8]
    56ef:	88 47 0e             	mov    BYTE PTR [rdi+0xe],al
    56f2:	48 8b 44 0a 60       	mov    rax,QWORD PTR [rdx+rcx*1+0x60]
    56f7:	48 83 f8 1f          	cmp    rax,0x1f
    56fb:	0f 87 3c 02 00 00    	ja     593d <__cxa_finalize@plt+0x64d>
    5701:	8a 44 04 08          	mov    al,BYTE PTR [rsp+rax*1+0x8]
    5705:	88 47 0c             	mov    BYTE PTR [rdi+0xc],al
    5708:	48 8b 44 0a 78       	mov    rax,QWORD PTR [rdx+rcx*1+0x78]
    570d:	48 83 f8 1f          	cmp    rax,0x1f
    5711:	0f 87 26 02 00 00    	ja     593d <__cxa_finalize@plt+0x64d>
    5717:	8a 44 04 08          	mov    al,BYTE PTR [rsp+rax*1+0x8]
    571b:	88 47 0f             	mov    BYTE PTR [rdi+0xf],al
    571e:	48 8b 44 0a 10       	mov    rax,QWORD PTR [rdx+rcx*1+0x10]
    5723:	48 83 f8 1f          	cmp    rax,0x1f
    5727:	0f 87 10 02 00 00    	ja     593d <__cxa_finalize@plt+0x64d>
    572d:	8a 44 04 08          	mov    al,BYTE PTR [rsp+rax*1+0x8]
    5731:	88 47 02             	mov    BYTE PTR [rdi+0x2],al
    5734:	48 8b 84 0a a8 00 00 	mov    rax,QWORD PTR [rdx+rcx*1+0xa8]
    573b:	00 
    573c:	48 83 f8 1f          	cmp    rax,0x1f
    5740:	0f 87 f7 01 00 00    	ja     593d <__cxa_finalize@plt+0x64d>
    5746:	8a 44 04 08          	mov    al,BYTE PTR [rsp+rax*1+0x8]
    574a:	88 47 15             	mov    BYTE PTR [rdi+0x15],al
    574d:	48 8b 84 0a 80 00 00 	mov    rax,QWORD PTR [rdx+rcx*1+0x80]
    5754:	00 
    5755:	48 83 f8 1f          	cmp    rax,0x1f
    5759:	0f 87 de 01 00 00    	ja     593d <__cxa_finalize@plt+0x64d>
    575f:	8a 44 04 08          	mov    al,BYTE PTR [rsp+rax*1+0x8]
    5763:	88 47 10             	mov    BYTE PTR [rdi+0x10],al
    5766:	48 8b 44 0a 48       	mov    rax,QWORD PTR [rdx+rcx*1+0x48]
    576b:	48 83 f8 1f          	cmp    rax,0x1f
    576f:	0f 87 c8 01 00 00    	ja     593d <__cxa_finalize@plt+0x64d>
    5775:	8a 44 04 08          	mov    al,BYTE PTR [rsp+rax*1+0x8]
    5779:	88 47 09             	mov    BYTE PTR [rdi+0x9],al
    577c:	48 8b 84 0a 98 00 00 	mov    rax,QWORD PTR [rdx+rcx*1+0x98]
    5783:	00 
    5784:	48 83 f8 1f          	cmp    rax,0x1f
    5788:	0f 87 af 01 00 00    	ja     593d <__cxa_finalize@plt+0x64d>
    578e:	8a 44 04 08          	mov    al,BYTE PTR [rsp+rax*1+0x8]
    5792:	88 47 13             	mov    BYTE PTR [rdi+0x13],al
    5795:	48 8b 44 0a 50       	mov    rax,QWORD PTR [rdx+rcx*1+0x50]
    579a:	48 83 f8 1f          	cmp    rax,0x1f
    579e:	0f 87 99 01 00 00    	ja     593d <__cxa_finalize@plt+0x64d>
    57a4:	8a 44 04 08          	mov    al,BYTE PTR [rsp+rax*1+0x8]
    57a8:	88 47 0a             	mov    BYTE PTR [rdi+0xa],al
    57ab:	48 8b 44 0a 68       	mov    rax,QWORD PTR [rdx+rcx*1+0x68]
    57b0:	48 83 f8 1f          	cmp    rax,0x1f
    57b4:	0f 87 83 01 00 00    	ja     593d <__cxa_finalize@plt+0x64d>
    57ba:	8a 44 04 08          	mov    al,BYTE PTR [rsp+rax*1+0x8]
    57be:	88 47 0d             	mov    BYTE PTR [rdi+0xd],al
    57c1:	48 8b 44 0a 30       	mov    rax,QWORD PTR [rdx+rcx*1+0x30]
    57c6:	48 83 f8 1f          	cmp    rax,0x1f
    57ca:	0f 87 6d 01 00 00    	ja     593d <__cxa_finalize@plt+0x64d>
    57d0:	8a 44 04 08          	mov    al,BYTE PTR [rsp+rax*1+0x8]
    57d4:	88 47 06             	mov    BYTE PTR [rdi+0x6],al
    57d7:	48 8b 84 0a b0 00 00 	mov    rax,QWORD PTR [rdx+rcx*1+0xb0]
    57de:	00 
    57df:	48 83 f8 1f          	cmp    rax,0x1f
    57e3:	0f 87 54 01 00 00    	ja     593d <__cxa_finalize@plt+0x64d>
    57e9:	8a 44 04 08          	mov    al,BYTE PTR [rsp+rax*1+0x8]
    57ed:	88 47 16             	mov    BYTE PTR [rdi+0x16],al
    57f0:	48 8b 04 0a          	mov    rax,QWORD PTR [rdx+rcx*1]
    57f4:	48 83 f8 1f          	cmp    rax,0x1f
    57f8:	0f 87 3f 01 00 00    	ja     593d <__cxa_finalize@plt+0x64d>
    57fe:	8a 44 04 08          	mov    al,BYTE PTR [rsp+rax*1+0x8]
    5802:	88 07                	mov    BYTE PTR [rdi],al
    5804:	48 8b 84 0a f0 00 00 	mov    rax,QWORD PTR [rdx+rcx*1+0xf0]
    580b:	00 
    580c:	48 83 f8 1f          	cmp    rax,0x1f
    5810:	0f 87 27 01 00 00    	ja     593d <__cxa_finalize@plt+0x64d>
    5816:	8a 44 04 08          	mov    al,BYTE PTR [rsp+rax*1+0x8]
    581a:	88 47 1e             	mov    BYTE PTR [rdi+0x1e],al
    581d:	48 8b 44 0a 08       	mov    rax,QWORD PTR [rdx+rcx*1+0x8]
    5822:	48 83 f8 1f          	cmp    rax,0x1f
    5826:	0f 87 11 01 00 00    	ja     593d <__cxa_finalize@plt+0x64d>
    582c:	8a 44 04 08          	mov    al,BYTE PTR [rsp+rax*1+0x8]
    5830:	88 47 01             	mov    BYTE PTR [rdi+0x1],al
    5833:	48 8b 44 0a 20       	mov    rax,QWORD PTR [rdx+rcx*1+0x20]
    5838:	48 83 f8 1f          	cmp    rax,0x1f
    583c:	0f 87 fb 00 00 00    	ja     593d <__cxa_finalize@plt+0x64d>
    5842:	8a 44 04 08          	mov    al,BYTE PTR [rsp+rax*1+0x8]
    5846:	88 47 04             	mov    BYTE PTR [rdi+0x4],al
    5849:	48 8b 84 0a d0 00 00 	mov    rax,QWORD PTR [rdx+rcx*1+0xd0]
    5850:	00 
    5851:	48 83 f8 1f          	cmp    rax,0x1f
    5855:	0f 87 e2 00 00 00    	ja     593d <__cxa_finalize@plt+0x64d>
    585b:	8a 44 04 08          	mov    al,BYTE PTR [rsp+rax*1+0x8]
    585f:	88 47 1a             	mov    BYTE PTR [rdi+0x1a],al
    5862:	48 8b 84 0a e8 00 00 	mov    rax,QWORD PTR [rdx+rcx*1+0xe8]
    5869:	00 
    586a:	48 83 f8 1f          	cmp    rax,0x1f
    586e:	0f 87 c9 00 00 00    	ja     593d <__cxa_finalize@plt+0x64d>
    5874:	8a 44 04 08          	mov    al,BYTE PTR [rsp+rax*1+0x8]
    5878:	88 47 1d             	mov    BYTE PTR [rdi+0x1d],al
    587b:	48 8b 44 0a 18       	mov    rax,QWORD PTR [rdx+rcx*1+0x18]
    5880:	48 83 f8 1f          	cmp    rax,0x1f
    5884:	0f 87 b3 00 00 00    	ja     593d <__cxa_finalize@plt+0x64d>
    588a:	8a 44 04 08          	mov    al,BYTE PTR [rsp+rax*1+0x8]
    588e:	88 47 03             	mov    BYTE PTR [rdi+0x3],al
    5891:	48 8b 84 0a f8 00 00 	mov    rax,QWORD PTR [rdx+rcx*1+0xf8]
    5898:	00 
    5899:	48 83 f8 1f          	cmp    rax,0x1f
    589d:	0f 87 9a 00 00 00    	ja     593d <__cxa_finalize@plt+0x64d>
    58a3:	8a 44 04 08          	mov    al,BYTE PTR [rsp+rax*1+0x8]
    58a7:	88 47 1f             	mov    BYTE PTR [rdi+0x1f],al
    58aa:	48 8b 84 0a a0 00 00 	mov    rax,QWORD PTR [rdx+rcx*1+0xa0]
    58b1:	00 
    58b2:	48 83 f8 1f          	cmp    rax,0x1f
    58b6:	0f 87 81 00 00 00    	ja     593d <__cxa_finalize@plt+0x64d>
    58bc:	8a 44 04 08          	mov    al,BYTE PTR [rsp+rax*1+0x8]
    58c0:	88 47 14             	mov    BYTE PTR [rdi+0x14],al
    58c3:	48 8b 84 0a c0 00 00 	mov    rax,QWORD PTR [rdx+rcx*1+0xc0]
    58ca:	00 
    58cb:	48 83 f8 1f          	cmp    rax,0x1f
    58cf:	77 6c                	ja     593d <__cxa_finalize@plt+0x64d>
    58d1:	8a 44 04 08          	mov    al,BYTE PTR [rsp+rax*1+0x8]
    58d5:	88 47 18             	mov    BYTE PTR [rdi+0x18],al
    58d8:	48 8b 44 0a 38       	mov    rax,QWORD PTR [rdx+rcx*1+0x38]
    58dd:	48 83 f8 1f          	cmp    rax,0x1f
    58e1:	77 5a                	ja     593d <__cxa_finalize@plt+0x64d>
    58e3:	8a 44 04 08          	mov    al,BYTE PTR [rsp+rax*1+0x8]
    58e7:	88 47 07             	mov    BYTE PTR [rdi+0x7],al
    58ea:	48 8b 44 0a 58       	mov    rax,QWORD PTR [rdx+rcx*1+0x58]
    58ef:	48 83 f8 1f          	cmp    rax,0x1f
    58f3:	77 48                	ja     593d <__cxa_finalize@plt+0x64d>
    58f5:	8a 44 04 08          	mov    al,BYTE PTR [rsp+rax*1+0x8]
    58f9:	88 47 0b             	mov    BYTE PTR [rdi+0xb],al
    58fc:	48 8b 84 0a b8 00 00 	mov    rax,QWORD PTR [rdx+rcx*1+0xb8]
    5903:	00 
    5904:	48 83 f8 1f          	cmp    rax,0x1f
    5908:	77 33                	ja     593d <__cxa_finalize@plt+0x64d>
    590a:	8a 44 04 08          	mov    al,BYTE PTR [rsp+rax*1+0x8]
    590e:	88 47 17             	mov    BYTE PTR [rdi+0x17],al
    5911:	48 8b 44 0a 28       	mov    rax,QWORD PTR [rdx+rcx*1+0x28]
    5916:	48 83 f8 1f          	cmp    rax,0x1f
    591a:	77 21                	ja     593d <__cxa_finalize@plt+0x64d>
    591c:	8a 44 04 08          	mov    al,BYTE PTR [rsp+rax*1+0x8]
    5920:	88 47 05             	mov    BYTE PTR [rdi+0x5],al
    5923:	48 8b 84 0a 90 00 00 	mov    rax,QWORD PTR [rdx+rcx*1+0x90]
    592a:	00 
    592b:	48 83 f8 20          	cmp    rax,0x20
    592f:	73 0c                	jae    593d <__cxa_finalize@plt+0x64d>
    5931:	8a 44 04 08          	mov    al,BYTE PTR [rsp+rax*1+0x8]
    5935:	88 47 12             	mov    BYTE PTR [rdi+0x12],al
    5938:	48 83 c4 28          	add    rsp,0x28
    593c:	c3                   	ret
    593d:	48 8d 15 b4 28 24 00 	lea    rdx,[rip+0x2428b4]        # 2481f8 <__cxa_finalize@plt+0x242f08>
    5944:	be 20 00 00 00       	mov    esi,0x20
    5949:	48 89 c7             	mov    rdi,rax
    594c:	ff 15 ee 51 24 00    	call   QWORD PTR [rip+0x2451ee]        # 24ab40 <__cxa_finalize@plt+0x245850>
    5952:	0f 0b                	ud2
    5954:	66 2e 0f 1f 84 00 00 	cs nop WORD PTR [rax+rax*1+0x0]
    595b:	00 00 00 
    595e:	66 90                	xchg   ax,ax
    5960:	55                   	push   rbp
    5961:	41 57                	push   r15
    5963:	41 56                	push   r14
    5965:	41 55                	push   r13
    5967:	41 54                	push   r12
    5969:	53                   	push   rbx
    596a:	48 81 ec f8 00 00 00 	sub    rsp,0xf8
    5971:	48 8d 9c 24 80 00 00 	lea    rbx,[rsp+0x80]
    5978:	00 
    5979:	48 89 df             	mov    rdi,rbx
    597c:	ff 15 f6 53 24 00    	call   QWORD PTR [rip+0x2453f6]        # 24ad78 <__cxa_finalize@plt+0x245a88>
    5982:	0f 10 84 24 80 00 00 	movups xmm0,XMMWORD PTR [rsp+0x80]
    5989:	00 
    598a:	0f 10 8c 24 90 00 00 	movups xmm1,XMMWORD PTR [rsp+0x90]
    5991:	00 
    5992:	0f 29 4c 24 10       	movaps XMMWORD PTR [rsp+0x10],xmm1
    5997:	0f 29 04 24          	movaps XMMWORD PTR [rsp],xmm0
    599b:	48 8d bc 24 a0 00 00 	lea    rdi,[rsp+0xa0]
    59a2:	00 
    59a3:	48 89 e6             	mov    rsi,rsp
    59a6:	e8 55 10 00 00       	call   6a00 <__cxa_finalize@plt+0x1710>
    59ab:	48 8b 84 24 b0 00 00 	mov    rax,QWORD PTR [rsp+0xb0]
    59b2:	00 
    59b3:	48 83 f8 02          	cmp    rax,0x2
    59b7:	0f 85 91 00 00 00    	jne    5a4e <__cxa_finalize@plt+0x75e>
    59bd:	48 8b 84 24 a0 00 00 	mov    rax,QWORD PTR [rsp+0xa0]
    59c4:	00 
    59c5:	48 83 78 28 29       	cmp    QWORD PTR [rax+0x28],0x29
    59ca:	0f 85 99 00 00 00    	jne    5a69 <__cxa_finalize@plt+0x779>
    59d0:	48 8b 58 18          	mov    rbx,QWORD PTR [rax+0x18]
    59d4:	48 8d 05 9d 43 03 00 	lea    rax,[rip+0x3439d]        # 39d78 <__cxa_finalize@plt+0x34a88>
    59db:	48 39 c3             	cmp    rbx,rax
    59de:	74 13                	je     59f3 <__cxa_finalize@plt+0x703>
    59e0:	48 b8 70 69 63 6f 43 	movabs rax,0x7b4654436f636970
    59e7:	54 46 7b 
    59ea:	48 39 03             	cmp    QWORD PTR [rbx],rax
    59ed:	0f 85 e0 00 00 00    	jne    5ad3 <__cxa_finalize@plt+0x7e3>
    59f3:	48 8d 43 28          	lea    rax,[rbx+0x28]
    59f7:	48 8d 0d 96 43 03 00 	lea    rcx,[rip+0x34396]        # 39d94 <__cxa_finalize@plt+0x34aa4>
    59fe:	48 39 c8             	cmp    rax,rcx
    5a01:	74 09                	je     5a0c <__cxa_finalize@plt+0x71c>
    5a03:	80 38 7d             	cmp    BYTE PTR [rax],0x7d
    5a06:	0f 85 c7 00 00 00    	jne    5ad3 <__cxa_finalize@plt+0x7e3>
    5a0c:	80 7b 08 bf          	cmp    BYTE PTR [rbx+0x8],0xbf
    5a10:	0f 8e c4 00 00 00    	jle    5ada <__cxa_finalize@plt+0x7ea>
    5a16:	48 83 c3 08          	add    rbx,0x8
    5a1a:	80 38 bf             	cmp    BYTE PTR [rax],0xbf
    5a1d:	0f 8e d8 00 00 00    	jle    5afb <__cxa_finalize@plt+0x80b>
    5a23:	bf 20 00 00 00       	mov    edi,0x20
    5a28:	be 01 00 00 00       	mov    esi,0x1
    5a2d:	ff 15 6d 53 24 00    	call   QWORD PTR [rip+0x24536d]        # 24ada0 <__cxa_finalize@plt+0x245ab0>
    5a33:	48 85 c0             	test   rax,rax
    5a36:	0f 85 dd 00 00 00    	jne    5b19 <__cxa_finalize@plt+0x829>
    5a3c:	bf 20 00 00 00       	mov    edi,0x20
    5a41:	be 01 00 00 00       	mov    esi,0x1
    5a46:	ff 15 74 54 24 00    	call   QWORD PTR [rip+0x245474]        # 24aec0 <__cxa_finalize@plt+0x245bd0>
    5a4c:	0f 0b                	ud2
    5a4e:	48 85 c0             	test   rax,rax
    5a51:	75 20                	jne    5a73 <__cxa_finalize@plt+0x783>
    5a53:	48 8d 15 ee 27 24 00 	lea    rdx,[rip+0x2427ee]        # 248248 <__cxa_finalize@plt+0x242f58>
    5a5a:	31 ff                	xor    edi,edi
    5a5c:	31 f6                	xor    esi,esi
    5a5e:	ff 15 dc 50 24 00    	call   QWORD PTR [rip+0x2450dc]        # 24ab40 <__cxa_finalize@plt+0x245850>
    5a64:	e9 ae 00 00 00       	jmp    5b17 <__cxa_finalize@plt+0x827>
    5a69:	e8 92 0b 00 00       	call   6600 <__cxa_finalize@plt+0x1310>
    5a6e:	e9 a4 00 00 00       	jmp    5b17 <__cxa_finalize@plt+0x827>
    5a73:	48 8b 84 24 a0 00 00 	mov    rax,QWORD PTR [rsp+0xa0]
    5a7a:	00 
    5a7b:	48 89 84 24 80 00 00 	mov    QWORD PTR [rsp+0x80],rax
    5a82:	00 
    5a83:	48 8d 05 36 fa ff ff 	lea    rax,[rip+0xfffffffffffffa36]        # 54c0 <__cxa_finalize@plt+0x1d0>
    5a8a:	48 89 84 24 88 00 00 	mov    QWORD PTR [rsp+0x88],rax
    5a91:	00 
    5a92:	48 8d 05 8f 27 24 00 	lea    rax,[rip+0x24278f]        # 248228 <__cxa_finalize@plt+0x242f38>
    5a99:	48 89 04 24          	mov    QWORD PTR [rsp],rax
    5a9d:	48 c7 44 24 08 02 00 	mov    QWORD PTR [rsp+0x8],0x2
    5aa4:	00 00 
    5aa6:	48 c7 44 24 10 00 00 	mov    QWORD PTR [rsp+0x10],0x0
    5aad:	00 00 
    5aaf:	48 89 5c 24 20       	mov    QWORD PTR [rsp+0x20],rbx
    5ab4:	48 c7 44 24 28 01 00 	mov    QWORD PTR [rsp+0x28],0x1
    5abb:	00 00 
    5abd:	48 89 e7             	mov    rdi,rsp
    5ac0:	ff 15 12 55 24 00    	call   QWORD PTR [rip+0x245512]        # 24afd8 <__cxa_finalize@plt+0x245ce8>
    5ac6:	bf 01 00 00 00       	mov    edi,0x1
    5acb:	ff 15 37 53 24 00    	call   QWORD PTR [rip+0x245337]        # 24ae08 <__cxa_finalize@plt+0x245b18>
    5ad1:	eb 44                	jmp    5b17 <__cxa_finalize@plt+0x827>
    5ad3:	e8 78 0b 00 00       	call   6650 <__cxa_finalize@plt+0x1360>
    5ad8:	eb 3d                	jmp    5b17 <__cxa_finalize@plt+0x827>
    5ada:	4c 8d 05 7f 27 24 00 	lea    r8,[rip+0x24277f]        # 248260 <__cxa_finalize@plt+0x242f70>
    5ae1:	be 29 00 00 00       	mov    esi,0x29
    5ae6:	ba 08 00 00 00       	mov    edx,0x8
    5aeb:	b9 29 00 00 00       	mov    ecx,0x29
    5af0:	48 89 df             	mov    rdi,rbx
    5af3:	ff 15 c7 50 24 00    	call   QWORD PTR [rip+0x2450c7]        # 24abc0 <__cxa_finalize@plt+0x2458d0>
    5af9:	eb 1c                	jmp    5b17 <__cxa_finalize@plt+0x827>
    5afb:	4c 8d 05 5e 27 24 00 	lea    r8,[rip+0x24275e]        # 248260 <__cxa_finalize@plt+0x242f70>
    5b02:	be 21 00 00 00       	mov    esi,0x21
    5b07:	b9 20 00 00 00       	mov    ecx,0x20
    5b0c:	48 89 df             	mov    rdi,rbx
    5b0f:	31 d2                	xor    edx,edx
    5b11:	ff 15 a9 50 24 00    	call   QWORD PTR [rip+0x2450a9]        # 24abc0 <__cxa_finalize@plt+0x2458d0>
    5b17:	0f 0b                	ud2
    5b19:	48 89 44 24 68       	mov    QWORD PTR [rsp+0x68],rax
    5b1e:	0f 28 05 2b 3a 03 00 	movaps xmm0,XMMWORD PTR [rip+0x33a2b]        # 39550 <__cxa_finalize@plt+0x34260>
    5b25:	0f 11 44 24 70       	movups XMMWORD PTR [rsp+0x70],xmm0
    5b2a:	48 8d 7c 24 68       	lea    rdi,[rsp+0x68]
    5b2f:	ba 20 00 00 00       	mov    edx,0x20
    5b34:	31 f6                	xor    esi,esi
    5b36:	e8 e5 0b 00 00       	call   6720 <__cxa_finalize@plt+0x1430>
    5b3b:	48 8b 44 24 68       	mov    rax,QWORD PTR [rsp+0x68]
    5b40:	48 8b 4c 24 78       	mov    rcx,QWORD PTR [rsp+0x78]
    5b45:	0f 10 03             	movups xmm0,XMMWORD PTR [rbx]
    5b48:	0f 10 4b 10          	movups xmm1,XMMWORD PTR [rbx+0x10]
    5b4c:	0f 11 4c 08 10       	movups XMMWORD PTR [rax+rcx*1+0x10],xmm1
    5b51:	0f 11 04 08          	movups XMMWORD PTR [rax+rcx*1],xmm0
    5b55:	48 8d 51 20          	lea    rdx,[rcx+0x20]
    5b59:	48 89 54 24 78       	mov    QWORD PTR [rsp+0x78],rdx
    5b5e:	48 85 c9             	test   rcx,rcx
    5b61:	0f 85 6d 07 00 00    	jne    62d4 <__cxa_finalize@plt+0xfe4>
    5b67:	0f 10 00             	movups xmm0,XMMWORD PTR [rax]
    5b6a:	0f 10 48 10          	movups xmm1,XMMWORD PTR [rax+0x10]
    5b6e:	0f 29 4c 24 10       	movaps XMMWORD PTR [rsp+0x10],xmm1
    5b73:	0f 29 04 24          	movaps XMMWORD PTR [rsp],xmm0
    5b77:	48 8d bc 24 b8 00 00 	lea    rdi,[rsp+0xb8]
    5b7e:	00 
    5b7f:	48 89 e6             	mov    rsi,rsp
    5b82:	31 d2                	xor    edx,edx
    5b84:	e8 57 f9 ff ff       	call   54e0 <__cxa_finalize@plt+0x1f0>
    5b89:	0f 10 84 24 b8 00 00 	movups xmm0,XMMWORD PTR [rsp+0xb8]
    5b90:	00 
    5b91:	0f 10 8c 24 c8 00 00 	movups xmm1,XMMWORD PTR [rsp+0xc8]
    5b98:	00 
    5b99:	0f 29 4c 24 10       	movaps XMMWORD PTR [rsp+0x10],xmm1
    5b9e:	0f 29 04 24          	movaps XMMWORD PTR [rsp],xmm0
    5ba2:	48 8d bc 24 d8 00 00 	lea    rdi,[rsp+0xd8]
    5ba9:	00 
    5baa:	48 89 e6             	mov    rsi,rsp
    5bad:	ba 01 00 00 00       	mov    edx,0x1
    5bb2:	e8 29 f9 ff ff       	call   54e0 <__cxa_finalize@plt+0x1f0>
    5bb7:	0f 10 84 24 d8 00 00 	movups xmm0,XMMWORD PTR [rsp+0xd8]
    5bbe:	00 
    5bbf:	0f 10 8c 24 e8 00 00 	movups xmm1,XMMWORD PTR [rsp+0xe8]
    5bc6:	00 
    5bc7:	0f 29 4c 24 10       	movaps XMMWORD PTR [rsp+0x10],xmm1
    5bcc:	0f 29 04 24          	movaps XMMWORD PTR [rsp],xmm0
    5bd0:	48 8d bc 24 80 00 00 	lea    rdi,[rsp+0x80]
    5bd7:	00 
    5bd8:	48 89 e6             	mov    rsi,rsp
    5bdb:	ba 02 00 00 00       	mov    edx,0x2
    5be0:	e8 fb f8 ff ff       	call   54e0 <__cxa_finalize@plt+0x1f0>
    5be5:	0f 10 84 24 80 00 00 	movups xmm0,XMMWORD PTR [rsp+0x80]
    5bec:	00 
    5bed:	0f 10 8c 24 90 00 00 	movups xmm1,XMMWORD PTR [rsp+0x90]
    5bf4:	00 
    5bf5:	0f 29 4c 24 10       	movaps XMMWORD PTR [rsp+0x10],xmm1
    5bfa:	0f 29 04 24          	movaps XMMWORD PTR [rsp],xmm0
    5bfe:	48 8d 7c 24 48       	lea    rdi,[rsp+0x48]
    5c03:	48 89 e6             	mov    rsi,rsp
    5c06:	ba 03 00 00 00       	mov    edx,0x3
    5c0b:	e8 d0 f8 ff ff       	call   54e0 <__cxa_finalize@plt+0x1f0>
    5c10:	40 8a 74 24 48       	mov    sil,BYTE PTR [rsp+0x48]
    5c15:	44 8a 74 24 49       	mov    r14b,BYTE PTR [rsp+0x49]
    5c1a:	40 8a 6c 24 4a       	mov    bpl,BYTE PTR [rsp+0x4a]
    5c1f:	8a 44 24 4b          	mov    al,BYTE PTR [rsp+0x4b]
    5c23:	88 44 24 3f          	mov    BYTE PTR [rsp+0x3f],al
    5c27:	8a 44 24 4c          	mov    al,BYTE PTR [rsp+0x4c]
    5c2b:	88 44 24 45          	mov    BYTE PTR [rsp+0x45],al
    5c2f:	8a 44 24 4d          	mov    al,BYTE PTR [rsp+0x4d]
    5c33:	88 44 24 3c          	mov    BYTE PTR [rsp+0x3c],al
    5c37:	8a 44 24 4e          	mov    al,BYTE PTR [rsp+0x4e]
    5c3b:	88 44 24 47          	mov    BYTE PTR [rsp+0x47],al
    5c3f:	8a 44 24 4f          	mov    al,BYTE PTR [rsp+0x4f]
    5c43:	88 44 24 38          	mov    BYTE PTR [rsp+0x38],al
    5c47:	8a 44 24 50          	mov    al,BYTE PTR [rsp+0x50]
    5c4b:	88 44 24 41          	mov    BYTE PTR [rsp+0x41],al
    5c4f:	8a 4c 24 51          	mov    cl,BYTE PTR [rsp+0x51]
    5c53:	8a 44 24 52          	mov    al,BYTE PTR [rsp+0x52]
    5c57:	88 44 24 46          	mov    BYTE PTR [rsp+0x46],al
    5c5b:	8a 44 24 53          	mov    al,BYTE PTR [rsp+0x53]
    5c5f:	88 44 24 3a          	mov    BYTE PTR [rsp+0x3a],al
    5c63:	44 8a 64 24 54       	mov    r12b,BYTE PTR [rsp+0x54]
    5c68:	8a 44 24 55          	mov    al,BYTE PTR [rsp+0x55]
    5c6c:	88 44 24 43          	mov    BYTE PTR [rsp+0x43],al
    5c70:	44 8a 4c 24 56       	mov    r9b,BYTE PTR [rsp+0x56]
    5c75:	8a 44 24 57          	mov    al,BYTE PTR [rsp+0x57]
    5c79:	88 44 24 37          	mov    BYTE PTR [rsp+0x37],al
    5c7d:	8a 44 24 61          	mov    al,BYTE PTR [rsp+0x61]
    5c81:	88 04 24             	mov    BYTE PTR [rsp],al
    5c84:	8a 44 24 58          	mov    al,BYTE PTR [rsp+0x58]
    5c88:	88 44 24 3b          	mov    BYTE PTR [rsp+0x3b],al
    5c8c:	8a 44 24 59          	mov    al,BYTE PTR [rsp+0x59]
    5c90:	88 44 24 42          	mov    BYTE PTR [rsp+0x42],al
    5c94:	8a 44 24 5a          	mov    al,BYTE PTR [rsp+0x5a]
    5c98:	88 44 24 44          	mov    BYTE PTR [rsp+0x44],al
    5c9c:	44 8a 54 24 5b       	mov    r10b,BYTE PTR [rsp+0x5b]
    5ca1:	8a 44 24 5c          	mov    al,BYTE PTR [rsp+0x5c]
    5ca5:	88 44 24 3e          	mov    BYTE PTR [rsp+0x3e],al
    5ca9:	8a 44 24 5d          	mov    al,BYTE PTR [rsp+0x5d]
    5cad:	88 44 24 3d          	mov    BYTE PTR [rsp+0x3d],al
    5cb1:	8a 44 24 5e          	mov    al,BYTE PTR [rsp+0x5e]
    5cb5:	88 44 24 39          	mov    BYTE PTR [rsp+0x39],al
    5cb9:	44 8a 44 24 5f       	mov    r8b,BYTE PTR [rsp+0x5f]
    5cbe:	8a 54 24 60          	mov    dl,BYTE PTR [rsp+0x60]
    5cc2:	44 8a 5c 24 62       	mov    r11b,BYTE PTR [rsp+0x62]
    5cc7:	44 8a 7c 24 63       	mov    r15b,BYTE PTR [rsp+0x63]
    5ccc:	8a 44 24 64          	mov    al,BYTE PTR [rsp+0x64]
    5cd0:	88 44 24 40          	mov    BYTE PTR [rsp+0x40],al
    5cd4:	8a 44 24 65          	mov    al,BYTE PTR [rsp+0x65]
    5cd8:	8a 5c 24 66          	mov    bl,BYTE PTR [rsp+0x66]
    5cdc:	88 5c 24 36          	mov    BYTE PTR [rsp+0x36],bl
    5ce0:	44 8a 6c 24 67       	mov    r13b,BYTE PTR [rsp+0x67]
    5ce5:	8a 1c 24             	mov    bl,BYTE PTR [rsp]
    5ce8:	48 c7 04 24 19 00 00 	mov    QWORD PTR [rsp],0x19
    5cef:	00 
    5cf0:	48 8b 3c 24          	mov    rdi,QWORD PTR [rsp]
    5cf4:	48 83 ff 1f          	cmp    rdi,0x1f
    5cf8:	0f 87 e0 05 00 00    	ja     62de <__cxa_finalize@plt+0xfee>
    5cfe:	40 88 6c 24 33       	mov    BYTE PTR [rsp+0x33],bpl
    5d03:	88 54 24 34          	mov    BYTE PTR [rsp+0x34],dl
    5d07:	88 4c 24 35          	mov    BYTE PTR [rsp+0x35],cl
    5d0b:	48 8d 2d 83 40 03 00 	lea    rbp,[rip+0x34083]        # 39d95 <__cxa_finalize@plt+0x34aa5>
    5d12:	3a 1c 2f             	cmp    bl,BYTE PTR [rdi+rbp*1]
    5d15:	0f 85 da 05 00 00    	jne    62f5 <__cxa_finalize@plt+0x1005>
    5d1b:	40 88 34 24          	mov    BYTE PTR [rsp],sil
    5d1f:	8a 1c 24             	mov    bl,BYTE PTR [rsp]
    5d22:	48 c7 04 24 00 00 00 	mov    QWORD PTR [rsp],0x0
    5d29:	00 
    5d2a:	48 8b 3c 24          	mov    rdi,QWORD PTR [rsp]
    5d2e:	48 83 ff 1f          	cmp    rdi,0x1f
    5d32:	0f 87 c7 05 00 00    	ja     62ff <__cxa_finalize@plt+0x100f>
    5d38:	48 8d 35 56 40 03 00 	lea    rsi,[rip+0x34056]        # 39d95 <__cxa_finalize@plt+0x34aa5>
    5d3f:	3a 1c 37             	cmp    bl,BYTE PTR [rdi+rsi*1]
    5d42:	0f 85 ad 05 00 00    	jne    62f5 <__cxa_finalize@plt+0x1005>
    5d48:	44 88 0c 24          	mov    BYTE PTR [rsp],r9b
    5d4c:	40 8a 34 24          	mov    sil,BYTE PTR [rsp]
    5d50:	48 c7 04 24 0e 00 00 	mov    QWORD PTR [rsp],0xe
    5d57:	00 
    5d58:	48 8b 3c 24          	mov    rdi,QWORD PTR [rsp]
    5d5c:	48 83 ff 1f          	cmp    rdi,0x1f
    5d60:	0f 87 b0 05 00 00    	ja     6316 <__cxa_finalize@plt+0x1026>
    5d66:	48 8d 1d 28 40 03 00 	lea    rbx,[rip+0x34028]        # 39d95 <__cxa_finalize@plt+0x34aa5>
    5d6d:	40 3a 34 1f          	cmp    sil,BYTE PTR [rdi+rbx*1]
    5d71:	0f 85 7e 05 00 00    	jne    62f5 <__cxa_finalize@plt+0x1005>
    5d77:	44 88 14 24          	mov    BYTE PTR [rsp],r10b
    5d7b:	40 8a 34 24          	mov    sil,BYTE PTR [rsp]
    5d7f:	48 c7 04 24 13 00 00 	mov    QWORD PTR [rsp],0x13
    5d86:	00 
    5d87:	48 8b 3c 24          	mov    rdi,QWORD PTR [rsp]
    5d8b:	48 83 ff 1f          	cmp    rdi,0x1f
    5d8f:	0f 87 98 05 00 00    	ja     632d <__cxa_finalize@plt+0x103d>
    5d95:	48 8d 1d f9 3f 03 00 	lea    rbx,[rip+0x33ff9]        # 39d95 <__cxa_finalize@plt+0x34aa5>
    5d9c:	40 3a 34 1f          	cmp    sil,BYTE PTR [rdi+rbx*1]
    5da0:	0f 85 4f 05 00 00    	jne    62f5 <__cxa_finalize@plt+0x1005>
    5da6:	44 88 04 24          	mov    BYTE PTR [rsp],r8b
    5daa:	40 8a 34 24          	mov    sil,BYTE PTR [rsp]
    5dae:	48 c7 04 24 17 00 00 	mov    QWORD PTR [rsp],0x17
    5db5:	00 
    5db6:	48 8b 3c 24          	mov    rdi,QWORD PTR [rsp]
    5dba:	48 83 ff 1f          	cmp    rdi,0x1f
    5dbe:	0f 87 80 05 00 00    	ja     6344 <__cxa_finalize@plt+0x1054>
    5dc4:	48 8d 1d ca 3f 03 00 	lea    rbx,[rip+0x33fca]        # 39d95 <__cxa_finalize@plt+0x34aa5>
    5dcb:	40 3a 34 1f          	cmp    sil,BYTE PTR [rdi+rbx*1]
    5dcf:	0f 85 20 05 00 00    	jne    62f5 <__cxa_finalize@plt+0x1005>
    5dd5:	44 88 34 24          	mov    BYTE PTR [rsp],r14b
    5dd9:	8a 0c 24             	mov    cl,BYTE PTR [rsp]
    5ddc:	48 c7 04 24 01 00 00 	mov    QWORD PTR [rsp],0x1
    5de3:	00 
    5de4:	48 8b 3c 24          	mov    rdi,QWORD PTR [rsp]
    5de8:	48 83 ff 1f          	cmp    rdi,0x1f
    5dec:	0f 87 69 05 00 00    	ja     635b <__cxa_finalize@plt+0x106b>
    5df2:	48 8d 35 9c 3f 03 00 	lea    rsi,[rip+0x33f9c]        # 39d95 <__cxa_finalize@plt+0x34aa5>
    5df9:	3a 0c 37             	cmp    cl,BYTE PTR [rdi+rsi*1]
    5dfc:	0f 85 f3 04 00 00    	jne    62f5 <__cxa_finalize@plt+0x1005>
    5e02:	88 04 24             	mov    BYTE PTR [rsp],al
    5e05:	8a 04 24             	mov    al,BYTE PTR [rsp]
    5e08:	48 c7 04 24 1d 00 00 	mov    QWORD PTR [rsp],0x1d
    5e0f:	00 
    5e10:	48 8b 3c 24          	mov    rdi,QWORD PTR [rsp]
    5e14:	48 83 ff 1f          	cmp    rdi,0x1f
    5e18:	0f 87 54 05 00 00    	ja     6372 <__cxa_finalize@plt+0x1082>
    5e1e:	48 8d 0d 70 3f 03 00 	lea    rcx,[rip+0x33f70]        # 39d95 <__cxa_finalize@plt+0x34aa5>
    5e25:	3a 04 0f             	cmp    al,BYTE PTR [rdi+rcx*1]
    5e28:	0f 85 c7 04 00 00    	jne    62f5 <__cxa_finalize@plt+0x1005>
    5e2e:	44 88 3c 24          	mov    BYTE PTR [rsp],r15b
    5e32:	8a 04 24             	mov    al,BYTE PTR [rsp]
    5e35:	48 c7 04 24 1b 00 00 	mov    QWORD PTR [rsp],0x1b
    5e3c:	00 
    5e3d:	48 8b 3c 24          	mov    rdi,QWORD PTR [rsp]
    5e41:	48 83 ff 1f          	cmp    rdi,0x1f
    5e45:	0f 87 3e 05 00 00    	ja     6389 <__cxa_finalize@plt+0x1099>
    5e4b:	48 8d 0d 43 3f 03 00 	lea    rcx,[rip+0x33f43]        # 39d95 <__cxa_finalize@plt+0x34aa5>
    5e52:	3a 04 0f             	cmp    al,BYTE PTR [rdi+rcx*1]
    5e55:	0f 85 9a 04 00 00    	jne    62f5 <__cxa_finalize@plt+0x1005>
    5e5b:	44 88 1c 24          	mov    BYTE PTR [rsp],r11b
    5e5f:	8a 04 24             	mov    al,BYTE PTR [rsp]
    5e62:	48 c7 04 24 1a 00 00 	mov    QWORD PTR [rsp],0x1a
    5e69:	00 
    5e6a:	48 8b 3c 24          	mov    rdi,QWORD PTR [rsp]
    5e6e:	48 83 ff 1f          	cmp    rdi,0x1f
    5e72:	0f 87 28 05 00 00    	ja     63a0 <__cxa_finalize@plt+0x10b0>
    5e78:	48 8d 0d 16 3f 03 00 	lea    rcx,[rip+0x33f16]        # 39d95 <__cxa_finalize@plt+0x34aa5>
    5e7f:	3a 04 0f             	cmp    al,BYTE PTR [rdi+rcx*1]
    5e82:	0f 85 6d 04 00 00    	jne    62f5 <__cxa_finalize@plt+0x1005>
    5e88:	44 88 24 24          	mov    BYTE PTR [rsp],r12b
    5e8c:	8a 04 24             	mov    al,BYTE PTR [rsp]
    5e8f:	48 c7 04 24 0c 00 00 	mov    QWORD PTR [rsp],0xc
    5e96:	00 
    5e97:	48 8b 3c 24          	mov    rdi,QWORD PTR [rsp]
    5e9b:	48 83 ff 1f          	cmp    rdi,0x1f
    5e9f:	0f 87 12 05 00 00    	ja     63b7 <__cxa_finalize@plt+0x10c7>
    5ea5:	48 8d 0d e9 3e 03 00 	lea    rcx,[rip+0x33ee9]        # 39d95 <__cxa_finalize@plt+0x34aa5>
    5eac:	3a 04 0f             	cmp    al,BYTE PTR [rdi+rcx*1]
    5eaf:	0f 85 40 04 00 00    	jne    62f5 <__cxa_finalize@plt+0x1005>
    5eb5:	44 88 2c 24          	mov    BYTE PTR [rsp],r13b
    5eb9:	8a 04 24             	mov    al,BYTE PTR [rsp]
    5ebc:	48 c7 04 24 1f 00 00 	mov    QWORD PTR [rsp],0x1f
    5ec3:	00 
    5ec4:	48 8b 3c 24          	mov    rdi,QWORD PTR [rsp]
    5ec8:	48 83 ff 1f          	cmp    rdi,0x1f
    5ecc:	0f 87 fc 04 00 00    	ja     63ce <__cxa_finalize@plt+0x10de>
    5ed2:	48 8d 0d bc 3e 03 00 	lea    rcx,[rip+0x33ebc]        # 39d95 <__cxa_finalize@plt+0x34aa5>
    5ed9:	3a 04 0f             	cmp    al,BYTE PTR [rdi+rcx*1]
    5edc:	0f 85 13 04 00 00    	jne    62f5 <__cxa_finalize@plt+0x1005>
    5ee2:	8a 44 24 47          	mov    al,BYTE PTR [rsp+0x47]
    5ee6:	88 04 24             	mov    BYTE PTR [rsp],al
    5ee9:	8a 04 24             	mov    al,BYTE PTR [rsp]
    5eec:	48 c7 04 24 06 00 00 	mov    QWORD PTR [rsp],0x6
    5ef3:	00 
    5ef4:	48 8b 3c 24          	mov    rdi,QWORD PTR [rsp]
    5ef8:	48 83 ff 1f          	cmp    rdi,0x1f
    5efc:	0f 87 e3 04 00 00    	ja     63e5 <__cxa_finalize@plt+0x10f5>
    5f02:	48 8d 0d 8c 3e 03 00 	lea    rcx,[rip+0x33e8c]        # 39d95 <__cxa_finalize@plt+0x34aa5>
    5f09:	3a 04 0f             	cmp    al,BYTE PTR [rdi+rcx*1]
    5f0c:	0f 85 e3 03 00 00    	jne    62f5 <__cxa_finalize@plt+0x1005>
    5f12:	8a 44 24 46          	mov    al,BYTE PTR [rsp+0x46]
    5f16:	88 04 24             	mov    BYTE PTR [rsp],al
    5f19:	8a 04 24             	mov    al,BYTE PTR [rsp]
    5f1c:	48 c7 04 24 0a 00 00 	mov    QWORD PTR [rsp],0xa
    5f23:	00 
    5f24:	48 8b 3c 24          	mov    rdi,QWORD PTR [rsp]
    5f28:	48 83 ff 1f          	cmp    rdi,0x1f
    5f2c:	0f 87 ca 04 00 00    	ja     63fc <__cxa_finalize@plt+0x110c>
    5f32:	48 8d 0d 5c 3e 03 00 	lea    rcx,[rip+0x33e5c]        # 39d95 <__cxa_finalize@plt+0x34aa5>
    5f39:	3a 04 0f             	cmp    al,BYTE PTR [rdi+rcx*1]
    5f3c:	0f 85 b3 03 00 00    	jne    62f5 <__cxa_finalize@plt+0x1005>
    5f42:	8a 44 24 37          	mov    al,BYTE PTR [rsp+0x37]
    5f46:	88 04 24             	mov    BYTE PTR [rsp],al
    5f49:	8a 04 24             	mov    al,BYTE PTR [rsp]
    5f4c:	48 c7 04 24 0f 00 00 	mov    QWORD PTR [rsp],0xf
    5f53:	00 
    5f54:	48 8b 3c 24          	mov    rdi,QWORD PTR [rsp]
    5f58:	48 83 ff 1f          	cmp    rdi,0x1f
    5f5c:	0f 87 b1 04 00 00    	ja     6413 <__cxa_finalize@plt+0x1123>
    5f62:	48 8d 0d 2c 3e 03 00 	lea    rcx,[rip+0x33e2c]        # 39d95 <__cxa_finalize@plt+0x34aa5>
    5f69:	3a 04 0f             	cmp    al,BYTE PTR [rdi+rcx*1]
    5f6c:	0f 85 83 03 00 00    	jne    62f5 <__cxa_finalize@plt+0x1005>
    5f72:	8a 44 24 36          	mov    al,BYTE PTR [rsp+0x36]
    5f76:	88 04 24             	mov    BYTE PTR [rsp],al
    5f79:	8a 04 24             	mov    al,BYTE PTR [rsp]
    5f7c:	48 c7 04 24 1e 00 00 	mov    QWORD PTR [rsp],0x1e
    5f83:	00 
    5f84:	48 8b 3c 24          	mov    rdi,QWORD PTR [rsp]
    5f88:	48 83 ff 1f          	cmp    rdi,0x1f
    5f8c:	0f 87 98 04 00 00    	ja     642a <__cxa_finalize@plt+0x113a>
    5f92:	48 8d 0d fc 3d 03 00 	lea    rcx,[rip+0x33dfc]        # 39d95 <__cxa_finalize@plt+0x34aa5>
    5f99:	3a 04 0f             	cmp    al,BYTE PTR [rdi+rcx*1]
    5f9c:	0f 85 53 03 00 00    	jne    62f5 <__cxa_finalize@plt+0x1005>
    5fa2:	8a 44 24 38          	mov    al,BYTE PTR [rsp+0x38]
    5fa6:	88 04 24             	mov    BYTE PTR [rsp],al
    5fa9:	8a 04 24             	mov    al,BYTE PTR [rsp]
    5fac:	48 c7 04 24 07 00 00 	mov    QWORD PTR [rsp],0x7
    5fb3:	00 
    5fb4:	48 8b 3c 24          	mov    rdi,QWORD PTR [rsp]
    5fb8:	48 83 ff 1f          	cmp    rdi,0x1f
    5fbc:	0f 87 7f 04 00 00    	ja     6441 <__cxa_finalize@plt+0x1151>
    5fc2:	48 8d 0d cc 3d 03 00 	lea    rcx,[rip+0x33dcc]        # 39d95 <__cxa_finalize@plt+0x34aa5>
    5fc9:	3a 04 0f             	cmp    al,BYTE PTR [rdi+rcx*1]
    5fcc:	0f 85 23 03 00 00    	jne    62f5 <__cxa_finalize@plt+0x1005>
    5fd2:	8a 44 24 3a          	mov    al,BYTE PTR [rsp+0x3a]
    5fd6:	88 04 24             	mov    BYTE PTR [rsp],al
    5fd9:	8a 04 24             	mov    al,BYTE PTR [rsp]
    5fdc:	48 c7 04 24 0b 00 00 	mov    QWORD PTR [rsp],0xb
    5fe3:	00 
    5fe4:	48 8b 3c 24          	mov    rdi,QWORD PTR [rsp]
    5fe8:	48 83 ff 1f          	cmp    rdi,0x1f
    5fec:	0f 87 66 04 00 00    	ja     6458 <__cxa_finalize@plt+0x1168>
    5ff2:	48 8d 0d 9c 3d 03 00 	lea    rcx,[rip+0x33d9c]        # 39d95 <__cxa_finalize@plt+0x34aa5>
    5ff9:	3a 04 0f             	cmp    al,BYTE PTR [rdi+rcx*1]
    5ffc:	0f 85 f3 02 00 00    	jne    62f5 <__cxa_finalize@plt+0x1005>
    6002:	8a 44 24 3c          	mov    al,BYTE PTR [rsp+0x3c]
    6006:	88 04 24             	mov    BYTE PTR [rsp],al
    6009:	8a 04 24             	mov    al,BYTE PTR [rsp]
    600c:	48 c7 04 24 05 00 00 	mov    QWORD PTR [rsp],0x5
    6013:	00 
    6014:	48 8b 3c 24          	mov    rdi,QWORD PTR [rsp]
    6018:	48 83 ff 1f          	cmp    rdi,0x1f
    601c:	0f 87 4d 04 00 00    	ja     646f <__cxa_finalize@plt+0x117f>
    6022:	48 8d 0d 6c 3d 03 00 	lea    rcx,[rip+0x33d6c]        # 39d95 <__cxa_finalize@plt+0x34aa5>
    6029:	3a 04 0f             	cmp    al,BYTE PTR [rdi+rcx*1]
    602c:	0f 85 c3 02 00 00    	jne    62f5 <__cxa_finalize@plt+0x1005>
    6032:	8a 44 24 39          	mov    al,BYTE PTR [rsp+0x39]
    6036:	88 04 24             	mov    BYTE PTR [rsp],al
    6039:	8a 04 24             	mov    al,BYTE PTR [rsp]
    603c:	48 c7 04 24 16 00 00 	mov    QWORD PTR [rsp],0x16
    6043:	00 
    6044:	48 8b 3c 24          	mov    rdi,QWORD PTR [rsp]
    6048:	48 83 ff 1f          	cmp    rdi,0x1f
    604c:	0f 87 34 04 00 00    	ja     6486 <__cxa_finalize@plt+0x1196>
    6052:	48 8d 0d 3c 3d 03 00 	lea    rcx,[rip+0x33d3c]        # 39d95 <__cxa_finalize@plt+0x34aa5>
    6059:	3a 04 0f             	cmp    al,BYTE PTR [rdi+rcx*1]
    605c:	0f 85 93 02 00 00    	jne    62f5 <__cxa_finalize@plt+0x1005>
    6062:	8a 44 24 3b          	mov    al,BYTE PTR [rsp+0x3b]
    6066:	88 04 24             	mov    BYTE PTR [rsp],al
    6069:	8a 04 24             	mov    al,BYTE PTR [rsp]
    606c:	48 c7 04 24 10 00 00 	mov    QWORD PTR [rsp],0x10
    6073:	00 
    6074:	48 8b 3c 24          	mov    rdi,QWORD PTR [rsp]
    6078:	48 83 ff 1f          	cmp    rdi,0x1f
    607c:	0f 87 1b 04 00 00    	ja     649d <__cxa_finalize@plt+0x11ad>
    6082:	48 8d 0d 0c 3d 03 00 	lea    rcx,[rip+0x33d0c]        # 39d95 <__cxa_finalize@plt+0x34aa5>
    6089:	3a 04 0f             	cmp    al,BYTE PTR [rdi+rcx*1]
    608c:	0f 85 63 02 00 00    	jne    62f5 <__cxa_finalize@plt+0x1005>
    6092:	8a 44 24 3d          	mov    al,BYTE PTR [rsp+0x3d]
    6096:	88 04 24             	mov    BYTE PTR [rsp],al
    6099:	8a 04 24             	mov    al,BYTE PTR [rsp]
    609c:	48 c7 04 24 15 00 00 	mov    QWORD PTR [rsp],0x15
    60a3:	00 
    60a4:	48 8b 3c 24          	mov    rdi,QWORD PTR [rsp]
    60a8:	48 83 ff 1f          	cmp    rdi,0x1f
    60ac:	0f 87 02 04 00 00    	ja     64b4 <__cxa_finalize@plt+0x11c4>
    60b2:	48 8d 0d dc 3c 03 00 	lea    rcx,[rip+0x33cdc]        # 39d95 <__cxa_finalize@plt+0x34aa5>
    60b9:	3a 04 0f             	cmp    al,BYTE PTR [rdi+rcx*1]
    60bc:	0f 85 33 02 00 00    	jne    62f5 <__cxa_finalize@plt+0x1005>
    60c2:	8a 44 24 3f          	mov    al,BYTE PTR [rsp+0x3f]
    60c6:	88 04 24             	mov    BYTE PTR [rsp],al
    60c9:	8a 04 24             	mov    al,BYTE PTR [rsp]
    60cc:	48 c7 04 24 03 00 00 	mov    QWORD PTR [rsp],0x3
    60d3:	00 
    60d4:	48 8b 3c 24          	mov    rdi,QWORD PTR [rsp]
    60d8:	48 83 ff 1f          	cmp    rdi,0x1f
    60dc:	0f 87 e9 03 00 00    	ja     64cb <__cxa_finalize@plt+0x11db>
    60e2:	48 8d 0d ac 3c 03 00 	lea    rcx,[rip+0x33cac]        # 39d95 <__cxa_finalize@plt+0x34aa5>
    60e9:	3a 04 0f             	cmp    al,BYTE PTR [rdi+rcx*1]
    60ec:	0f 85 03 02 00 00    	jne    62f5 <__cxa_finalize@plt+0x1005>
    60f2:	8a 44 24 3e          	mov    al,BYTE PTR [rsp+0x3e]
    60f6:	88 04 24             	mov    BYTE PTR [rsp],al
    60f9:	8a 04 24             	mov    al,BYTE PTR [rsp]
    60fc:	48 c7 04 24 14 00 00 	mov    QWORD PTR [rsp],0x14
    6103:	00 
    6104:	48 8b 3c 24          	mov    rdi,QWORD PTR [rsp]
    6108:	48 83 ff 1f          	cmp    rdi,0x1f
    610c:	0f 87 d0 03 00 00    	ja     64e2 <__cxa_finalize@plt+0x11f2>
    6112:	48 8d 0d 7c 3c 03 00 	lea    rcx,[rip+0x33c7c]        # 39d95 <__cxa_finalize@plt+0x34aa5>
    6119:	3a 04 0f             	cmp    al,BYTE PTR [rdi+rcx*1]
    611c:	0f 85 d3 01 00 00    	jne    62f5 <__cxa_finalize@plt+0x1005>
    6122:	8a 44 24 41          	mov    al,BYTE PTR [rsp+0x41]
    6126:	88 04 24             	mov    BYTE PTR [rsp],al
    6129:	8a 04 24             	mov    al,BYTE PTR [rsp]
    612c:	48 c7 04 24 08 00 00 	mov    QWORD PTR [rsp],0x8
    6133:	00 
    6134:	48 8b 3c 24          	mov    rdi,QWORD PTR [rsp]
    6138:	48 83 ff 1f          	cmp    rdi,0x1f
    613c:	0f 87 b7 03 00 00    	ja     64f9 <__cxa_finalize@plt+0x1209>
    6142:	48 8d 0d 4c 3c 03 00 	lea    rcx,[rip+0x33c4c]        # 39d95 <__cxa_finalize@plt+0x34aa5>
    6149:	3a 04 0f             	cmp    al,BYTE PTR [rdi+rcx*1]
    614c:	0f 85 a3 01 00 00    	jne    62f5 <__cxa_finalize@plt+0x1005>
    6152:	8a 44 24 40          	mov    al,BYTE PTR [rsp+0x40]
    6156:	88 04 24             	mov    BYTE PTR [rsp],al
    6159:	8a 04 24             	mov    al,BYTE PTR [rsp]
    615c:	48 c7 04 24 1c 00 00 	mov    QWORD PTR [rsp],0x1c
    6163:	00 
    6164:	48 8b 3c 24          	mov    rdi,QWORD PTR [rsp]
    6168:	48 83 ff 1f          	cmp    rdi,0x1f
    616c:	0f 87 9e 03 00 00    	ja     6510 <__cxa_finalize@plt+0x1220>
    6172:	48 8d 0d 1c 3c 03 00 	lea    rcx,[rip+0x33c1c]        # 39d95 <__cxa_finalize@plt+0x34aa5>
    6179:	3a 04 0f             	cmp    al,BYTE PTR [rdi+rcx*1]
    617c:	0f 85 73 01 00 00    	jne    62f5 <__cxa_finalize@plt+0x1005>
    6182:	8a 44 24 43          	mov    al,BYTE PTR [rsp+0x43]
    6186:	88 04 24             	mov    BYTE PTR [rsp],al
    6189:	8a 04 24             	mov    al,BYTE PTR [rsp]
    618c:	48 c7 04 24 0d 00 00 	mov    QWORD PTR [rsp],0xd
    6193:	00 
    6194:	48 8b 3c 24          	mov    rdi,QWORD PTR [rsp]
    6198:	48 83 ff 1f          	cmp    rdi,0x1f
    619c:	0f 87 85 03 00 00    	ja     6527 <__cxa_finalize@plt+0x1237>
    61a2:	48 8d 0d ec 3b 03 00 	lea    rcx,[rip+0x33bec]        # 39d95 <__cxa_finalize@plt+0x34aa5>
    61a9:	3a 04 0f             	cmp    al,BYTE PTR [rdi+rcx*1]
    61ac:	0f 85 43 01 00 00    	jne    62f5 <__cxa_finalize@plt+0x1005>
    61b2:	8a 44 24 42          	mov    al,BYTE PTR [rsp+0x42]
    61b6:	88 04 24             	mov    BYTE PTR [rsp],al
    61b9:	8a 04 24             	mov    al,BYTE PTR [rsp]
    61bc:	48 c7 04 24 11 00 00 	mov    QWORD PTR [rsp],0x11
    61c3:	00 
    61c4:	48 8b 3c 24          	mov    rdi,QWORD PTR [rsp]
    61c8:	48 83 ff 1f          	cmp    rdi,0x1f
    61cc:	0f 87 6c 03 00 00    	ja     653e <__cxa_finalize@plt+0x124e>
    61d2:	48 8d 0d bc 3b 03 00 	lea    rcx,[rip+0x33bbc]        # 39d95 <__cxa_finalize@plt+0x34aa5>
    61d9:	3a 04 0f             	cmp    al,BYTE PTR [rdi+rcx*1]
    61dc:	0f 85 13 01 00 00    	jne    62f5 <__cxa_finalize@plt+0x1005>
    61e2:	8a 44 24 33          	mov    al,BYTE PTR [rsp+0x33]
    61e6:	88 04 24             	mov    BYTE PTR [rsp],al
    61e9:	8a 04 24             	mov    al,BYTE PTR [rsp]
    61ec:	48 c7 04 24 02 00 00 	mov    QWORD PTR [rsp],0x2
    61f3:	00 
    61f4:	48 8b 3c 24          	mov    rdi,QWORD PTR [rsp]
    61f8:	48 83 ff 1f          	cmp    rdi,0x1f
    61fc:	0f 87 53 03 00 00    	ja     6555 <__cxa_finalize@plt+0x1265>
    6202:	48 8d 0d 8c 3b 03 00 	lea    rcx,[rip+0x33b8c]        # 39d95 <__cxa_finalize@plt+0x34aa5>
    6209:	3a 04 0f             	cmp    al,BYTE PTR [rdi+rcx*1]
    620c:	0f 85 e3 00 00 00    	jne    62f5 <__cxa_finalize@plt+0x1005>
    6212:	8a 44 24 35          	mov    al,BYTE PTR [rsp+0x35]
    6216:	88 04 24             	mov    BYTE PTR [rsp],al
    6219:	8a 04 24             	mov    al,BYTE PTR [rsp]
    621c:	48 c7 04 24 09 00 00 	mov    QWORD PTR [rsp],0x9
    6223:	00 
    6224:	48 8b 3c 24          	mov    rdi,QWORD PTR [rsp]
    6228:	48 83 ff 1f          	cmp    rdi,0x1f
    622c:	0f 87 3a 03 00 00    	ja     656c <__cxa_finalize@plt+0x127c>
    6232:	48 8d 0d 5c 3b 03 00 	lea    rcx,[rip+0x33b5c]        # 39d95 <__cxa_finalize@plt+0x34aa5>
    6239:	3a 04 0f             	cmp    al,BYTE PTR [rdi+rcx*1]
    623c:	0f 85 b3 00 00 00    	jne    62f5 <__cxa_finalize@plt+0x1005>
    6242:	8a 44 24 45          	mov    al,BYTE PTR [rsp+0x45]
    6246:	88 04 24             	mov    BYTE PTR [rsp],al
    6249:	8a 04 24             	mov    al,BYTE PTR [rsp]
    624c:	48 c7 04 24 04 00 00 	mov    QWORD PTR [rsp],0x4
    6253:	00 
    6254:	48 8b 3c 24          	mov    rdi,QWORD PTR [rsp]
    6258:	48 83 ff 1f          	cmp    rdi,0x1f
    625c:	0f 87 21 03 00 00    	ja     6583 <__cxa_finalize@plt+0x1293>
    6262:	48 8d 0d 2c 3b 03 00 	lea    rcx,[rip+0x33b2c]        # 39d95 <__cxa_finalize@plt+0x34aa5>
    6269:	3a 04 0f             	cmp    al,BYTE PTR [rdi+rcx*1]
    626c:	0f 85 83 00 00 00    	jne    62f5 <__cxa_finalize@plt+0x1005>
    6272:	8a 44 24 34          	mov    al,BYTE PTR [rsp+0x34]
    6276:	88 04 24             	mov    BYTE PTR [rsp],al
    6279:	8a 04 24             	mov    al,BYTE PTR [rsp]
    627c:	48 c7 04 24 18 00 00 	mov    QWORD PTR [rsp],0x18
    6283:	00 
    6284:	48 8b 3c 24          	mov    rdi,QWORD PTR [rsp]
    6288:	48 83 ff 1f          	cmp    rdi,0x1f
    628c:	0f 87 08 03 00 00    	ja     659a <__cxa_finalize@plt+0x12aa>
    6292:	48 8d 0d fc 3a 03 00 	lea    rcx,[rip+0x33afc]        # 39d95 <__cxa_finalize@plt+0x34aa5>
    6299:	3a 04 0f             	cmp    al,BYTE PTR [rdi+rcx*1]
    629c:	75 57                	jne    62f5 <__cxa_finalize@plt+0x1005>
    629e:	8a 44 24 44          	mov    al,BYTE PTR [rsp+0x44]
    62a2:	88 04 24             	mov    BYTE PTR [rsp],al
    62a5:	8a 04 24             	mov    al,BYTE PTR [rsp]
    62a8:	48 c7 04 24 12 00 00 	mov    QWORD PTR [rsp],0x12
    62af:	00 
    62b0:	48 8b 3c 24          	mov    rdi,QWORD PTR [rsp]
    62b4:	48 83 ff 20          	cmp    rdi,0x20
    62b8:	0f 83 f3 02 00 00    	jae    65b1 <__cxa_finalize@plt+0x12c1>
    62be:	48 8d 0d d0 3a 03 00 	lea    rcx,[rip+0x33ad0]        # 39d95 <__cxa_finalize@plt+0x34aa5>
    62c5:	3a 04 0f             	cmp    al,BYTE PTR [rdi+rcx*1]
    62c8:	75 2b                	jne    62f5 <__cxa_finalize@plt+0x1005>
    62ca:	e8 d1 03 00 00       	call   66a0 <__cxa_finalize@plt+0x13b0>
    62cf:	e9 43 f8 ff ff       	jmp    5b17 <__cxa_finalize@plt+0x827>
    62d4:	e8 27 03 00 00       	call   6600 <__cxa_finalize@plt+0x1310>
    62d9:	e9 39 f8 ff ff       	jmp    5b17 <__cxa_finalize@plt+0x827>
    62de:	48 8d 15 2b 1f 24 00 	lea    rdx,[rip+0x241f2b]        # 248210 <__cxa_finalize@plt+0x242f20>
    62e5:	be 20 00 00 00       	mov    esi,0x20
    62ea:	ff 15 50 48 24 00    	call   QWORD PTR [rip+0x244850]        # 24ab40 <__cxa_finalize@plt+0x245850>
    62f0:	e9 22 f8 ff ff       	jmp    5b17 <__cxa_finalize@plt+0x827>
    62f5:	e8 56 03 00 00       	call   6650 <__cxa_finalize@plt+0x1360>
    62fa:	e9 18 f8 ff ff       	jmp    5b17 <__cxa_finalize@plt+0x827>
    62ff:	48 8d 15 0a 1f 24 00 	lea    rdx,[rip+0x241f0a]        # 248210 <__cxa_finalize@plt+0x242f20>
    6306:	be 20 00 00 00       	mov    esi,0x20
    630b:	ff 15 2f 48 24 00    	call   QWORD PTR [rip+0x24482f]        # 24ab40 <__cxa_finalize@plt+0x245850>
    6311:	e9 01 f8 ff ff       	jmp    5b17 <__cxa_finalize@plt+0x827>
    6316:	48 8d 15 f3 1e 24 00 	lea    rdx,[rip+0x241ef3]        # 248210 <__cxa_finalize@plt+0x242f20>
    631d:	be 20 00 00 00       	mov    esi,0x20
    6322:	ff 15 18 48 24 00    	call   QWORD PTR [rip+0x244818]        # 24ab40 <__cxa_finalize@plt+0x245850>
    6328:	e9 ea f7 ff ff       	jmp    5b17 <__cxa_finalize@plt+0x827>
    632d:	48 8d 15 dc 1e 24 00 	lea    rdx,[rip+0x241edc]        # 248210 <__cxa_finalize@plt+0x242f20>
    6334:	be 20 00 00 00       	mov    esi,0x20
    6339:	ff 15 01 48 24 00    	call   QWORD PTR [rip+0x244801]        # 24ab40 <__cxa_finalize@plt+0x245850>
    633f:	e9 d3 f7 ff ff       	jmp    5b17 <__cxa_finalize@plt+0x827>
    6344:	48 8d 15 c5 1e 24 00 	lea    rdx,[rip+0x241ec5]        # 248210 <__cxa_finalize@plt+0x242f20>
    634b:	be 20 00 00 00       	mov    esi,0x20
    6350:	ff 15 ea 47 24 00    	call   QWORD PTR [rip+0x2447ea]        # 24ab40 <__cxa_finalize@plt+0x245850>
    6356:	e9 bc f7 ff ff       	jmp    5b17 <__cxa_finalize@plt+0x827>
    635b:	48 8d 15 ae 1e 24 00 	lea    rdx,[rip+0x241eae]        # 248210 <__cxa_finalize@plt+0x242f20>
    6362:	be 20 00 00 00       	mov    esi,0x20
    6367:	ff 15 d3 47 24 00    	call   QWORD PTR [rip+0x2447d3]        # 24ab40 <__cxa_finalize@plt+0x245850>
    636d:	e9 a5 f7 ff ff       	jmp    5b17 <__cxa_finalize@plt+0x827>
    6372:	48 8d 15 97 1e 24 00 	lea    rdx,[rip+0x241e97]        # 248210 <__cxa_finalize@plt+0x242f20>
    6379:	be 20 00 00 00       	mov    esi,0x20
    637e:	ff 15 bc 47 24 00    	call   QWORD PTR [rip+0x2447bc]        # 24ab40 <__cxa_finalize@plt+0x245850>
    6384:	e9 8e f7 ff ff       	jmp    5b17 <__cxa_finalize@plt+0x827>
    6389:	48 8d 15 80 1e 24 00 	lea    rdx,[rip+0x241e80]        # 248210 <__cxa_finalize@plt+0x242f20>
    6390:	be 20 00 00 00       	mov    esi,0x20
    6395:	ff 15 a5 47 24 00    	call   QWORD PTR [rip+0x2447a5]        # 24ab40 <__cxa_finalize@plt+0x245850>
    639b:	e9 77 f7 ff ff       	jmp    5b17 <__cxa_finalize@plt+0x827>
    63a0:	48 8d 15 69 1e 24 00 	lea    rdx,[rip+0x241e69]        # 248210 <__cxa_finalize@plt+0x242f20>
    63a7:	be 20 00 00 00       	mov    esi,0x20
    63ac:	ff 15 8e 47 24 00    	call   QWORD PTR [rip+0x24478e]        # 24ab40 <__cxa_finalize@plt+0x245850>
    63b2:	e9 60 f7 ff ff       	jmp    5b17 <__cxa_finalize@plt+0x827>
    63b7:	48 8d 15 52 1e 24 00 	lea    rdx,[rip+0x241e52]        # 248210 <__cxa_finalize@plt+0x242f20>
    63be:	be 20 00 00 00       	mov    esi,0x20
    63c3:	ff 15 77 47 24 00    	call   QWORD PTR [rip+0x244777]        # 24ab40 <__cxa_finalize@plt+0x245850>
    63c9:	e9 49 f7 ff ff       	jmp    5b17 <__cxa_finalize@plt+0x827>
    63ce:	48 8d 15 3b 1e 24 00 	lea    rdx,[rip+0x241e3b]        # 248210 <__cxa_finalize@plt+0x242f20>
    63d5:	be 20 00 00 00       	mov    esi,0x20
    63da:	ff 15 60 47 24 00    	call   QWORD PTR [rip+0x244760]        # 24ab40 <__cxa_finalize@plt+0x245850>
    63e0:	e9 32 f7 ff ff       	jmp    5b17 <__cxa_finalize@plt+0x827>
    63e5:	48 8d 15 24 1e 24 00 	lea    rdx,[rip+0x241e24]        # 248210 <__cxa_finalize@plt+0x242f20>
    63ec:	be 20 00 00 00       	mov    esi,0x20
    63f1:	ff 15 49 47 24 00    	call   QWORD PTR [rip+0x244749]        # 24ab40 <__cxa_finalize@plt+0x245850>
    63f7:	e9 1b f7 ff ff       	jmp    5b17 <__cxa_finalize@plt+0x827>
    63fc:	48 8d 15 0d 1e 24 00 	lea    rdx,[rip+0x241e0d]        # 248210 <__cxa_finalize@plt+0x242f20>
    6403:	be 20 00 00 00       	mov    esi,0x20
    6408:	ff 15 32 47 24 00    	call   QWORD PTR [rip+0x244732]        # 24ab40 <__cxa_finalize@plt+0x245850>
    640e:	e9 04 f7 ff ff       	jmp    5b17 <__cxa_finalize@plt+0x827>
    6413:	48 8d 15 f6 1d 24 00 	lea    rdx,[rip+0x241df6]        # 248210 <__cxa_finalize@plt+0x242f20>
    641a:	be 20 00 00 00       	mov    esi,0x20
    641f:	ff 15 1b 47 24 00    	call   QWORD PTR [rip+0x24471b]        # 24ab40 <__cxa_finalize@plt+0x245850>
    6425:	e9 ed f6 ff ff       	jmp    5b17 <__cxa_finalize@plt+0x827>
    642a:	48 8d 15 df 1d 24 00 	lea    rdx,[rip+0x241ddf]        # 248210 <__cxa_finalize@plt+0x242f20>
    6431:	be 20 00 00 00       	mov    esi,0x20
    6436:	ff 15 04 47 24 00    	call   QWORD PTR [rip+0x244704]        # 24ab40 <__cxa_finalize@plt+0x245850>
    643c:	e9 d6 f6 ff ff       	jmp    5b17 <__cxa_finalize@plt+0x827>
    6441:	48 8d 15 c8 1d 24 00 	lea    rdx,[rip+0x241dc8]        # 248210 <__cxa_finalize@plt+0x242f20>
    6448:	be 20 00 00 00       	mov    esi,0x20
    644d:	ff 15 ed 46 24 00    	call   QWORD PTR [rip+0x2446ed]        # 24ab40 <__cxa_finalize@plt+0x245850>
    6453:	e9 bf f6 ff ff       	jmp    5b17 <__cxa_finalize@plt+0x827>
    6458:	48 8d 15 b1 1d 24 00 	lea    rdx,[rip+0x241db1]        # 248210 <__cxa_finalize@plt+0x242f20>
    645f:	be 20 00 00 00       	mov    esi,0x20
    6464:	ff 15 d6 46 24 00    	call   QWORD PTR [rip+0x2446d6]        # 24ab40 <__cxa_finalize@plt+0x245850>
    646a:	e9 a8 f6 ff ff       	jmp    5b17 <__cxa_finalize@plt+0x827>
    646f:	48 8d 15 9a 1d 24 00 	lea    rdx,[rip+0x241d9a]        # 248210 <__cxa_finalize@plt+0x242f20>
    6476:	be 20 00 00 00       	mov    esi,0x20
    647b:	ff 15 bf 46 24 00    	call   QWORD PTR [rip+0x2446bf]        # 24ab40 <__cxa_finalize@plt+0x245850>
    6481:	e9 91 f6 ff ff       	jmp    5b17 <__cxa_finalize@plt+0x827>
    6486:	48 8d 15 83 1d 24 00 	lea    rdx,[rip+0x241d83]        # 248210 <__cxa_finalize@plt+0x242f20>
    648d:	be 20 00 00 00       	mov    esi,0x20
    6492:	ff 15 a8 46 24 00    	call   QWORD PTR [rip+0x2446a8]        # 24ab40 <__cxa_finalize@plt+0x245850>
    6498:	e9 7a f6 ff ff       	jmp    5b17 <__cxa_finalize@plt+0x827>
    649d:	48 8d 15 6c 1d 24 00 	lea    rdx,[rip+0x241d6c]        # 248210 <__cxa_finalize@plt+0x242f20>
    64a4:	be 20 00 00 00       	mov    esi,0x20
    64a9:	ff 15 91 46 24 00    	call   QWORD PTR [rip+0x244691]        # 24ab40 <__cxa_finalize@plt+0x245850>
    64af:	e9 63 f6 ff ff       	jmp    5b17 <__cxa_finalize@plt+0x827>
    64b4:	48 8d 15 55 1d 24 00 	lea    rdx,[rip+0x241d55]        # 248210 <__cxa_finalize@plt+0x242f20>
    64bb:	be 20 00 00 00       	mov    esi,0x20
    64c0:	ff 15 7a 46 24 00    	call   QWORD PTR [rip+0x24467a]        # 24ab40 <__cxa_finalize@plt+0x245850>
    64c6:	e9 4c f6 ff ff       	jmp    5b17 <__cxa_finalize@plt+0x827>
    64cb:	48 8d 15 3e 1d 24 00 	lea    rdx,[rip+0x241d3e]        # 248210 <__cxa_finalize@plt+0x242f20>
    64d2:	be 20 00 00 00       	mov    esi,0x20
    64d7:	ff 15 63 46 24 00    	call   QWORD PTR [rip+0x244663]        # 24ab40 <__cxa_finalize@plt+0x245850>
    64dd:	e9 35 f6 ff ff       	jmp    5b17 <__cxa_finalize@plt+0x827>
    64e2:	48 8d 15 27 1d 24 00 	lea    rdx,[rip+0x241d27]        # 248210 <__cxa_finalize@plt+0x242f20>
    64e9:	be 20 00 00 00       	mov    esi,0x20
    64ee:	ff 15 4c 46 24 00    	call   QWORD PTR [rip+0x24464c]        # 24ab40 <__cxa_finalize@plt+0x245850>
    64f4:	e9 1e f6 ff ff       	jmp    5b17 <__cxa_finalize@plt+0x827>
    64f9:	48 8d 15 10 1d 24 00 	lea    rdx,[rip+0x241d10]        # 248210 <__cxa_finalize@plt+0x242f20>
    6500:	be 20 00 00 00       	mov    esi,0x20
    6505:	ff 15 35 46 24 00    	call   QWORD PTR [rip+0x244635]        # 24ab40 <__cxa_finalize@plt+0x245850>
    650b:	e9 07 f6 ff ff       	jmp    5b17 <__cxa_finalize@plt+0x827>
    6510:	48 8d 15 f9 1c 24 00 	lea    rdx,[rip+0x241cf9]        # 248210 <__cxa_finalize@plt+0x242f20>
    6517:	be 20 00 00 00       	mov    esi,0x20
    651c:	ff 15 1e 46 24 00    	call   QWORD PTR [rip+0x24461e]        # 24ab40 <__cxa_finalize@plt+0x245850>
    6522:	e9 f0 f5 ff ff       	jmp    5b17 <__cxa_finalize@plt+0x827>
    6527:	48 8d 15 e2 1c 24 00 	lea    rdx,[rip+0x241ce2]        # 248210 <__cxa_finalize@plt+0x242f20>
    652e:	be 20 00 00 00       	mov    esi,0x20
    6533:	ff 15 07 46 24 00    	call   QWORD PTR [rip+0x244607]        # 24ab40 <__cxa_finalize@plt+0x245850>
    6539:	e9 d9 f5 ff ff       	jmp    5b17 <__cxa_finalize@plt+0x827>
    653e:	48 8d 15 cb 1c 24 00 	lea    rdx,[rip+0x241ccb]        # 248210 <__cxa_finalize@plt+0x242f20>
    6545:	be 20 00 00 00       	mov    esi,0x20
    654a:	ff 15 f0 45 24 00    	call   QWORD PTR [rip+0x2445f0]        # 24ab40 <__cxa_finalize@plt+0x245850>
    6550:	e9 c2 f5 ff ff       	jmp    5b17 <__cxa_finalize@plt+0x827>
    6555:	48 8d 15 b4 1c 24 00 	lea    rdx,[rip+0x241cb4]        # 248210 <__cxa_finalize@plt+0x242f20>
    655c:	be 20 00 00 00       	mov    esi,0x20
    6561:	ff 15 d9 45 24 00    	call   QWORD PTR [rip+0x2445d9]        # 24ab40 <__cxa_finalize@plt+0x245850>
    6567:	e9 ab f5 ff ff       	jmp    5b17 <__cxa_finalize@plt+0x827>
    656c:	48 8d 15 9d 1c 24 00 	lea    rdx,[rip+0x241c9d]        # 248210 <__cxa_finalize@plt+0x242f20>
    6573:	be 20 00 00 00       	mov    esi,0x20
    6578:	ff 15 c2 45 24 00    	call   QWORD PTR [rip+0x2445c2]        # 24ab40 <__cxa_finalize@plt+0x245850>
    657e:	e9 94 f5 ff ff       	jmp    5b17 <__cxa_finalize@plt+0x827>
    6583:	48 8d 15 86 1c 24 00 	lea    rdx,[rip+0x241c86]        # 248210 <__cxa_finalize@plt+0x242f20>
    658a:	be 20 00 00 00       	mov    esi,0x20
    658f:	ff 15 ab 45 24 00    	call   QWORD PTR [rip+0x2445ab]        # 24ab40 <__cxa_finalize@plt+0x245850>
    6595:	e9 7d f5 ff ff       	jmp    5b17 <__cxa_finalize@plt+0x827>
    659a:	48 8d 15 6f 1c 24 00 	lea    rdx,[rip+0x241c6f]        # 248210 <__cxa_finalize@plt+0x242f20>
    65a1:	be 20 00 00 00       	mov    esi,0x20
    65a6:	ff 15 94 45 24 00    	call   QWORD PTR [rip+0x244594]        # 24ab40 <__cxa_finalize@plt+0x245850>
    65ac:	e9 66 f5 ff ff       	jmp    5b17 <__cxa_finalize@plt+0x827>
    65b1:	48 8d 15 58 1c 24 00 	lea    rdx,[rip+0x241c58]        # 248210 <__cxa_finalize@plt+0x242f20>
    65b8:	be 20 00 00 00       	mov    esi,0x20
    65bd:	ff 15 7d 45 24 00    	call   QWORD PTR [rip+0x24457d]        # 24ab40 <__cxa_finalize@plt+0x245850>
    65c3:	e9 4f f5 ff ff       	jmp    5b17 <__cxa_finalize@plt+0x827>
    65c8:	48 89 c3             	mov    rbx,rax
    65cb:	48 8d 7c 24 68       	lea    rdi,[rsp+0x68]
    65d0:	e8 cb ee ff ff       	call   54a0 <__cxa_finalize@plt+0x1b0>
    65d5:	eb 12                	jmp    65e9 <__cxa_finalize@plt+0x12f9>
    65d7:	48 89 c3             	mov    rbx,rax
    65da:	48 8d 7c 24 68       	lea    rdi,[rsp+0x68]
    65df:	e8 bc ee ff ff       	call   54a0 <__cxa_finalize@plt+0x1b0>
    65e4:	eb 03                	jmp    65e9 <__cxa_finalize@plt+0x12f9>
    65e6:	48 89 c3             	mov    rbx,rax
    65e9:	48 8d bc 24 a0 00 00 	lea    rdi,[rsp+0xa0]
    65f0:	00 
    65f1:	e8 1a ee ff ff       	call   5410 <__cxa_finalize@plt+0x120>
    65f6:	48 89 df             	mov    rdi,rbx
    65f9:	e8 e2 ec ff ff       	call   52e0 <_Unwind_Resume@plt>
    65fe:	0f 0b                	ud2
    6600:	48 83 ec 38          	sub    rsp,0x38
    6604:	48 8d 05 6d 1c 24 00 	lea    rax,[rip+0x241c6d]        # 248278 <__cxa_finalize@plt+0x242f88>
    660b:	48 89 44 24 08       	mov    QWORD PTR [rsp+0x8],rax
    6610:	48 c7 44 24 10 01 00 	mov    QWORD PTR [rsp+0x10],0x1
    6617:	00 00 
    6619:	48 c7 44 24 18 00 00 	mov    QWORD PTR [rsp+0x18],0x0
    6620:	00 00 
    6622:	48 8d 05 9f 37 03 00 	lea    rax,[rip+0x3379f]        # 39dc8 <__cxa_finalize@plt+0x34ad8>
    6629:	48 89 44 24 28       	mov    QWORD PTR [rsp+0x28],rax
    662e:	48 c7 44 24 30 00 00 	mov    QWORD PTR [rsp+0x30],0x0
    6635:	00 00 
    6637:	48 8d 7c 24 08       	lea    rdi,[rsp+0x8]
    663c:	ff 15 96 49 24 00    	call   QWORD PTR [rip+0x244996]        # 24afd8 <__cxa_finalize@plt+0x245ce8>
    6642:	bf 01 00 00 00       	mov    edi,0x1
    6647:	ff 15 bb 47 24 00    	call   QWORD PTR [rip+0x2447bb]        # 24ae08 <__cxa_finalize@plt+0x245b18>
    664d:	0f 0b                	ud2
    664f:	90                   	nop
    6650:	48 83 ec 38          	sub    rsp,0x38
    6654:	48 8d 05 2d 1c 24 00 	lea    rax,[rip+0x241c2d]        # 248288 <__cxa_finalize@plt+0x242f98>
    665b:	48 89 44 24 08       	mov    QWORD PTR [rsp+0x8],rax
    6660:	48 c7 44 24 10 01 00 	mov    QWORD PTR [rsp+0x10],0x1
    6667:	00 00 
    6669:	48 c7 44 24 18 00 00 	mov    QWORD PTR [rsp+0x18],0x0
    6670:	00 00 
    6672:	48 8d 05 4f 37 03 00 	lea    rax,[rip+0x3374f]        # 39dc8 <__cxa_finalize@plt+0x34ad8>
    6679:	48 89 44 24 28       	mov    QWORD PTR [rsp+0x28],rax
    667e:	48 c7 44 24 30 00 00 	mov    QWORD PTR [rsp+0x30],0x0
    6685:	00 00 
    6687:	48 8d 7c 24 08       	lea    rdi,[rsp+0x8]
    668c:	ff 15 46 49 24 00    	call   QWORD PTR [rip+0x244946]        # 24afd8 <__cxa_finalize@plt+0x245ce8>
    6692:	bf 01 00 00 00       	mov    edi,0x1
    6697:	ff 15 6b 47 24 00    	call   QWORD PTR [rip+0x24476b]        # 24ae08 <__cxa_finalize@plt+0x245b18>
    669d:	0f 0b                	ud2
    669f:	90                   	nop
    66a0:	48 83 ec 38          	sub    rsp,0x38
    66a4:	48 8d 05 ed 1b 24 00 	lea    rax,[rip+0x241bed]        # 248298 <__cxa_finalize@plt+0x242fa8>
    66ab:	48 89 44 24 08       	mov    QWORD PTR [rsp+0x8],rax
    66b0:	48 c7 44 24 10 01 00 	mov    QWORD PTR [rsp+0x10],0x1
    66b7:	00 00 
    66b9:	48 c7 44 24 18 00 00 	mov    QWORD PTR [rsp+0x18],0x0
    66c0:	00 00 
    66c2:	48 8d 05 ff 36 03 00 	lea    rax,[rip+0x336ff]        # 39dc8 <__cxa_finalize@plt+0x34ad8>
    66c9:	48 89 44 24 28       	mov    QWORD PTR [rsp+0x28],rax
    66ce:	48 c7 44 24 30 00 00 	mov    QWORD PTR [rsp+0x30],0x0
    66d5:	00 00 
    66d7:	48 8d 7c 24 08       	lea    rdi,[rsp+0x8]
    66dc:	ff 15 f6 48 24 00    	call   QWORD PTR [rip+0x2448f6]        # 24afd8 <__cxa_finalize@plt+0x245ce8>
    66e2:	31 ff                	xor    edi,edi
    66e4:	ff 15 1e 47 24 00    	call   QWORD PTR [rip+0x24471e]        # 24ae08 <__cxa_finalize@plt+0x245b18>
    66ea:	0f 0b                	ud2
    66ec:	0f 1f 40 00          	nop    DWORD PTR [rax+0x0]
    66f0:	50                   	push   rax
    66f1:	48 89 f1             	mov    rcx,rsi
    66f4:	48 63 d7             	movsxd rdx,edi
    66f7:	48 8d 05 62 f2 ff ff 	lea    rax,[rip+0xfffffffffffff262]        # 5960 <__cxa_finalize@plt+0x670>
    66fe:	48 89 04 24          	mov    QWORD PTR [rsp],rax
    6702:	48 8d 35 9f 1b 24 00 	lea    rsi,[rip+0x241b9f]        # 2482a8 <__cxa_finalize@plt+0x242fb8>
    6709:	48 89 e7             	mov    rdi,rsp
    670c:	ff 15 ee 47 24 00    	call   QWORD PTR [rip+0x2447ee]        # 24af00 <__cxa_finalize@plt+0x245c10>
    6712:	59                   	pop    rcx
    6713:	c3                   	ret
    6714:	66 2e 0f 1f 84 00 00 	cs nop WORD PTR [rax+rax*1+0x0]
    671b:	00 00 00 
    671e:	66 90                	xchg   ax,ax
    6720:	41 56                	push   r14
    6722:	53                   	push   rbx
    6723:	50                   	push   rax
    6724:	48 89 f0             	mov    rax,rsi
    6727:	48 8b 77 08          	mov    rsi,QWORD PTR [rdi+0x8]
    672b:	48 89 f1             	mov    rcx,rsi
    672e:	48 29 c1             	sub    rcx,rax
    6731:	48 39 d1             	cmp    rcx,rdx
    6734:	73 60                	jae    6796 <__cxa_finalize@plt+0x14a6>
    6736:	48 01 d0             	add    rax,rdx
    6739:	72 63                	jb     679e <__cxa_finalize@plt+0x14ae>
    673b:	48 89 fb             	mov    rbx,rdi
    673e:	48 8d 0c 36          	lea    rcx,[rsi+rsi*1]
    6742:	48 39 c1             	cmp    rcx,rax
    6745:	48 0f 47 c1          	cmova  rax,rcx
    6749:	48 83 f8 08          	cmp    rax,0x8
    674d:	41 be 08 00 00 00    	mov    r14d,0x8
    6753:	4c 0f 47 f0          	cmova  r14,rax
    6757:	48 89 f7             	mov    rdi,rsi
    675a:	48 85 f6             	test   rsi,rsi
    675d:	74 03                	je     6762 <__cxa_finalize@plt+0x1472>
    675f:	48 8b 3b             	mov    rdi,QWORD PTR [rbx]
    6762:	48 85 ff             	test   rdi,rdi
    6765:	74 15                	je     677c <__cxa_finalize@plt+0x148c>
    6767:	48 85 f6             	test   rsi,rsi
    676a:	74 10                	je     677c <__cxa_finalize@plt+0x148c>
    676c:	ba 01 00 00 00       	mov    edx,0x1
    6771:	4c 89 f1             	mov    rcx,r14
    6774:	ff 15 7e 42 24 00    	call   QWORD PTR [rip+0x24427e]        # 24a9f8 <__cxa_finalize@plt+0x245708>
    677a:	eb 0e                	jmp    678a <__cxa_finalize@plt+0x149a>
    677c:	be 01 00 00 00       	mov    esi,0x1
    6781:	4c 89 f7             	mov    rdi,r14
    6784:	ff 15 16 46 24 00    	call   QWORD PTR [rip+0x244616]        # 24ada0 <__cxa_finalize@plt+0x245ab0>
    678a:	48 85 c0             	test   rax,rax
    678d:	74 17                	je     67a6 <__cxa_finalize@plt+0x14b6>
    678f:	48 89 03             	mov    QWORD PTR [rbx],rax
    6792:	4c 89 73 08          	mov    QWORD PTR [rbx+0x8],r14
    6796:	48 83 c4 08          	add    rsp,0x8
    679a:	5b                   	pop    rbx
    679b:	41 5e                	pop    r14
    679d:	c3                   	ret
    679e:	ff 15 e4 47 24 00    	call   QWORD PTR [rip+0x2447e4]        # 24af88 <__cxa_finalize@plt+0x245c98>
    67a4:	0f 0b                	ud2
    67a6:	be 01 00 00 00       	mov    esi,0x1
    67ab:	4c 89 f7             	mov    rdi,r14
    67ae:	ff 15 0c 47 24 00    	call   QWORD PTR [rip+0x24470c]        # 24aec0 <__cxa_finalize@plt+0x245bd0>
    67b4:	0f 0b                	ud2
    67b6:	66 2e 0f 1f 84 00 00 	cs nop WORD PTR [rax+rax*1+0x0]
    67bd:	00 00 00 
    67c0:	41 57                	push   r15
    67c2:	41 56                	push   r14
    67c4:	53                   	push   rbx
    67c5:	48 8b 4f 08          	mov    rcx,QWORD PTR [rdi+0x8]
    67c9:	48 89 c8             	mov    rax,rcx
    67cc:	48 29 f0             	sub    rax,rsi
    67cf:	48 39 d0             	cmp    rax,rdx
    67d2:	0f 83 ad 00 00 00    	jae    6885 <__cxa_finalize@plt+0x1595>
    67d8:	48 01 d6             	add    rsi,rdx
    67db:	0f 82 b6 00 00 00    	jb     6897 <__cxa_finalize@plt+0x15a7>
    67e1:	48 8d 04 09          	lea    rax,[rcx+rcx*1]
    67e5:	48 39 f0             	cmp    rax,rsi
    67e8:	48 0f 47 f0          	cmova  rsi,rax
    67ec:	48 83 fe 04          	cmp    rsi,0x4
    67f0:	b8 04 00 00 00       	mov    eax,0x4
    67f5:	48 0f 47 c6          	cmova  rax,rsi
    67f9:	ba 18 00 00 00       	mov    edx,0x18
    67fe:	31 db                	xor    ebx,ebx
    6800:	48 f7 e2             	mul    rdx
    6803:	49 89 c6             	mov    r14,rax
    6806:	0f 91 c0             	setno  al
    6809:	0f 80 88 00 00 00    	jo     6897 <__cxa_finalize@plt+0x15a7>
    680f:	49 89 ff             	mov    r15,rdi
    6812:	88 c3                	mov    bl,al
    6814:	48 89 cf             	mov    rdi,rcx
    6817:	48 85 c9             	test   rcx,rcx
    681a:	74 03                	je     681f <__cxa_finalize@plt+0x152f>
    681c:	49 8b 3f             	mov    rdi,QWORD PTR [r15]
    681f:	48 c1 e3 03          	shl    rbx,0x3
    6823:	48 85 ff             	test   rdi,rdi
    6826:	74 1d                	je     6845 <__cxa_finalize@plt+0x1555>
    6828:	48 c1 e1 03          	shl    rcx,0x3
    682c:	48 8d 34 49          	lea    rsi,[rcx+rcx*2]
    6830:	48 85 f6             	test   rsi,rsi
    6833:	74 1d                	je     6852 <__cxa_finalize@plt+0x1562>
    6835:	ba 08 00 00 00       	mov    edx,0x8
    683a:	4c 89 f1             	mov    rcx,r14
    683d:	ff 15 b5 41 24 00    	call   QWORD PTR [rip+0x2441b5]        # 24a9f8 <__cxa_finalize@plt+0x245708>
    6843:	eb 20                	jmp    6865 <__cxa_finalize@plt+0x1575>
    6845:	4d 85 f6             	test   r14,r14
    6848:	74 41                	je     688b <__cxa_finalize@plt+0x159b>
    684a:	4c 89 f7             	mov    rdi,r14
    684d:	48 89 de             	mov    rsi,rbx
    6850:	eb 0d                	jmp    685f <__cxa_finalize@plt+0x156f>
    6852:	4d 85 f6             	test   r14,r14
    6855:	74 39                	je     6890 <__cxa_finalize@plt+0x15a0>
    6857:	be 08 00 00 00       	mov    esi,0x8
    685c:	4c 89 f7             	mov    rdi,r14
    685f:	ff 15 3b 45 24 00    	call   QWORD PTR [rip+0x24453b]        # 24ada0 <__cxa_finalize@plt+0x245ab0>
    6865:	48 85 c0             	test   rax,rax
    6868:	74 35                	je     689f <__cxa_finalize@plt+0x15af>
    686a:	49 89 07             	mov    QWORD PTR [r15],rax
    686d:	48 b9 ab aa aa aa aa 	movabs rcx,0xaaaaaaaaaaaaaaab
    6874:	aa aa aa 
    6877:	4c 89 f0             	mov    rax,r14
    687a:	48 f7 e1             	mul    rcx
    687d:	48 c1 ea 04          	shr    rdx,0x4
    6881:	49 89 57 08          	mov    QWORD PTR [r15+0x8],rdx
    6885:	5b                   	pop    rbx
    6886:	41 5e                	pop    r14
    6888:	41 5f                	pop    r15
    688a:	c3                   	ret
    688b:	48 89 d8             	mov    rax,rbx
    688e:	eb da                	jmp    686a <__cxa_finalize@plt+0x157a>
    6890:	b8 08 00 00 00       	mov    eax,0x8
    6895:	eb d3                	jmp    686a <__cxa_finalize@plt+0x157a>
    6897:	ff 15 eb 46 24 00    	call   QWORD PTR [rip+0x2446eb]        # 24af88 <__cxa_finalize@plt+0x245c98>
    689d:	0f 0b                	ud2
    689f:	4c 89 f7             	mov    rdi,r14
    68a2:	48 89 de             	mov    rsi,rbx
    68a5:	ff 15 15 46 24 00    	call   QWORD PTR [rip+0x244615]        # 24aec0 <__cxa_finalize@plt+0x245bd0>
    68ab:	0f 0b                	ud2
    68ad:	0f 1f 00             	nop    DWORD PTR [rax]
    68b0:	41 57                	push   r15
    68b2:	41 56                	push   r14
    68b4:	41 55                	push   r13
    68b6:	41 54                	push   r12
    68b8:	53                   	push   rbx
    68b9:	49 89 fe             	mov    r14,rdi
    68bc:	4c 8b 67 10          	mov    r12,QWORD PTR [rdi+0x10]
    68c0:	48 8b 47 18          	mov    rax,QWORD PTR [rdi+0x18]
    68c4:	4c 29 e0             	sub    rax,r12
    68c7:	74 48                	je     6911 <__cxa_finalize@plt+0x1621>
    68c9:	48 c1 f8 03          	sar    rax,0x3
    68cd:	48 b9 ab aa aa aa aa 	movabs rcx,0xaaaaaaaaaaaaaaab
    68d4:	aa aa aa 
    68d7:	48 0f af c8          	imul   rcx,rax
    68db:	48 c1 e1 03          	shl    rcx,0x3
    68df:	4c 8d 3c 49          	lea    r15,[rcx+rcx*2]
    68e3:	31 db                	xor    ebx,ebx
    68e5:	4c 8d 2d c4 04 00 00 	lea    r13,[rip+0x4c4]        # 6db0 <__cxa_finalize@plt+0x1ac0>
    68ec:	eb 0b                	jmp    68f9 <__cxa_finalize@plt+0x1609>
    68ee:	66 90                	xchg   ax,ax
    68f0:	48 83 c3 18          	add    rbx,0x18
    68f4:	49 39 df             	cmp    r15,rbx
    68f7:	74 18                	je     6911 <__cxa_finalize@plt+0x1621>
    68f9:	49 8b 74 1c 08       	mov    rsi,QWORD PTR [r12+rbx*1+0x8]
    68fe:	48 85 f6             	test   rsi,rsi
    6901:	74 ed                	je     68f0 <__cxa_finalize@plt+0x1600>
    6903:	49 8b 3c 1c          	mov    rdi,QWORD PTR [r12+rbx*1]
    6907:	ba 01 00 00 00       	mov    edx,0x1
    690c:	41 ff d5             	call   r13
    690f:	eb df                	jmp    68f0 <__cxa_finalize@plt+0x1600>
    6911:	49 8b 46 08          	mov    rax,QWORD PTR [r14+0x8]
    6915:	48 85 c0             	test   rax,rax
    6918:	74 24                	je     693e <__cxa_finalize@plt+0x164e>
    691a:	48 c1 e0 03          	shl    rax,0x3
    691e:	48 8d 34 40          	lea    rsi,[rax+rax*2]
    6922:	48 85 f6             	test   rsi,rsi
    6925:	74 17                	je     693e <__cxa_finalize@plt+0x164e>
    6927:	49 8b 3e             	mov    rdi,QWORD PTR [r14]
    692a:	ba 08 00 00 00       	mov    edx,0x8
    692f:	5b                   	pop    rbx
    6930:	41 5c                	pop    r12
    6932:	41 5d                	pop    r13
    6934:	41 5e                	pop    r14
    6936:	41 5f                	pop    r15
    6938:	ff 25 8a 42 24 00    	jmp    QWORD PTR [rip+0x24428a]        # 24abc8 <__cxa_finalize@plt+0x2458d8>
    693e:	5b                   	pop    rbx
    693f:	41 5c                	pop    r12
    6941:	41 5d                	pop    r13
    6943:	41 5e                	pop    r14
    6945:	41 5f                	pop    r15
    6947:	c3                   	ret
    6948:	0f 1f 84 00 00 00 00 	nop    DWORD PTR [rax+rax*1+0x0]
    694f:	00 
    6950:	41 57                	push   r15
    6952:	41 56                	push   r14
    6954:	41 55                	push   r13
    6956:	41 54                	push   r12
    6958:	53                   	push   rbx
    6959:	49 89 fe             	mov    r14,rdi
    695c:	48 8b 47 10          	mov    rax,QWORD PTR [rdi+0x10]
    6960:	48 85 c0             	test   rax,rax
    6963:	74 3c                	je     69a1 <__cxa_finalize@plt+0x16b1>
    6965:	4d 8b 26             	mov    r12,QWORD PTR [r14]
    6968:	48 c1 e0 03          	shl    rax,0x3
    696c:	4c 8d 3c 40          	lea    r15,[rax+rax*2]
    6970:	31 db                	xor    ebx,ebx
    6972:	4c 8d 2d 37 04 00 00 	lea    r13,[rip+0x437]        # 6db0 <__cxa_finalize@plt+0x1ac0>
    6979:	e9 0b 00 00 00       	jmp    6989 <__cxa_finalize@plt+0x1699>
    697e:	66 90                	xchg   ax,ax
    6980:	48 83 c3 18          	add    rbx,0x18
    6984:	49 39 df             	cmp    r15,rbx
    6987:	74 18                	je     69a1 <__cxa_finalize@plt+0x16b1>
    6989:	49 8b 74 1c 08       	mov    rsi,QWORD PTR [r12+rbx*1+0x8]
    698e:	48 85 f6             	test   rsi,rsi
    6991:	74 ed                	je     6980 <__cxa_finalize@plt+0x1690>
    6993:	49 8b 3c 1c          	mov    rdi,QWORD PTR [r12+rbx*1]
    6997:	ba 01 00 00 00       	mov    edx,0x1
    699c:	41 ff d5             	call   r13
    699f:	eb df                	jmp    6980 <__cxa_finalize@plt+0x1690>
    69a1:	49 8b 46 08          	mov    rax,QWORD PTR [r14+0x8]
    69a5:	48 85 c0             	test   rax,rax
    69a8:	74 24                	je     69ce <__cxa_finalize@plt+0x16de>
    69aa:	48 c1 e0 03          	shl    rax,0x3
    69ae:	48 8d 34 40          	lea    rsi,[rax+rax*2]
    69b2:	48 85 f6             	test   rsi,rsi
    69b5:	74 17                	je     69ce <__cxa_finalize@plt+0x16de>
    69b7:	49 8b 3e             	mov    rdi,QWORD PTR [r14]
    69ba:	ba 08 00 00 00       	mov    edx,0x8
    69bf:	5b                   	pop    rbx
    69c0:	41 5c                	pop    r12
    69c2:	41 5d                	pop    r13
    69c4:	41 5e                	pop    r14
    69c6:	41 5f                	pop    r15
    69c8:	ff 25 fa 41 24 00    	jmp    QWORD PTR [rip+0x2441fa]        # 24abc8 <__cxa_finalize@plt+0x2458d8>
    69ce:	5b                   	pop    rbx
    69cf:	41 5c                	pop    r12
    69d1:	41 5d                	pop    r13
    69d3:	41 5e                	pop    r14
    69d5:	41 5f                	pop    r15
    69d7:	c3                   	ret
    69d8:	0f 1f 84 00 00 00 00 	nop    DWORD PTR [rax+rax*1+0x0]
    69df:	00 
    69e0:	48 8b 77 08          	mov    rsi,QWORD PTR [rdi+0x8]
    69e4:	48 85 f6             	test   rsi,rsi
    69e7:	74 0e                	je     69f7 <__cxa_finalize@plt+0x1707>
    69e9:	48 8b 3f             	mov    rdi,QWORD PTR [rdi]
    69ec:	ba 01 00 00 00       	mov    edx,0x1
    69f1:	ff 25 d1 41 24 00    	jmp    QWORD PTR [rip+0x2441d1]        # 24abc8 <__cxa_finalize@plt+0x2458d8>
    69f7:	c3                   	ret
    69f8:	0f 1f 84 00 00 00 00 	nop    DWORD PTR [rax+rax*1+0x0]
    69ff:	00 
    6a00:	55                   	push   rbp
    6a01:	41 57                	push   r15
    6a03:	41 56                	push   r14
    6a05:	41 55                	push   r13
    6a07:	41 54                	push   r12
    6a09:	53                   	push   rbx
    6a0a:	48 81 ec 98 00 00 00 	sub    rsp,0x98
    6a11:	49 89 f7             	mov    r15,rsi
    6a14:	49 89 fd             	mov    r13,rdi
    6a17:	48 8d 7c 24 20       	lea    rdi,[rsp+0x20]
    6a1c:	ff 15 b6 44 24 00    	call   QWORD PTR [rip+0x2444b6]        # 24aed8 <__cxa_finalize@plt+0x245be8>
    6a22:	48 83 7c 24 20 00    	cmp    QWORD PTR [rsp+0x20],0x0
    6a28:	74 7e                	je     6aa8 <__cxa_finalize@plt+0x17b8>
    6a2a:	48 8b 44 24 30       	mov    rax,QWORD PTR [rsp+0x30]
    6a2f:	48 89 44 24 70       	mov    QWORD PTR [rsp+0x70],rax
    6a34:	0f 10 44 24 20       	movups xmm0,XMMWORD PTR [rsp+0x20]
    6a39:	0f 29 44 24 60       	movaps XMMWORD PTR [rsp+0x60],xmm0
    6a3e:	48 8d 7c 24 40       	lea    rdi,[rsp+0x40]
    6a43:	4c 89 fe             	mov    rsi,r15
    6a46:	ff 15 dc 40 24 00    	call   QWORD PTR [rip+0x2440dc]        # 24ab28 <__cxa_finalize@plt+0x245838>
    6a4c:	48 8b 4c 24 40       	mov    rcx,QWORD PTR [rsp+0x40]
    6a51:	48 ff c1             	inc    rcx
    6a54:	48 c7 c0 ff ff ff ff 	mov    rax,0xffffffffffffffff
    6a5b:	48 0f 45 c1          	cmovne rax,rcx
    6a5f:	b9 18 00 00 00       	mov    ecx,0x18
    6a64:	48 f7 e1             	mul    rcx
    6a67:	0f 80 93 02 00 00    	jo     6d00 <__cxa_finalize@plt+0x1a10>
    6a6d:	48 89 c3             	mov    rbx,rax
    6a70:	48 85 c0             	test   rax,rax
    6a73:	4c 89 6c 24 78       	mov    QWORD PTR [rsp+0x78],r13
    6a78:	0f 84 c4 00 00 00    	je     6b42 <__cxa_finalize@plt+0x1852>
    6a7e:	be 08 00 00 00       	mov    esi,0x8
    6a83:	48 89 df             	mov    rdi,rbx
    6a86:	ff 15 14 43 24 00    	call   QWORD PTR [rip+0x244314]        # 24ada0 <__cxa_finalize@plt+0x245ab0>
    6a8c:	48 89 c1             	mov    rcx,rax
    6a8f:	48 85 c0             	test   rax,rax
    6a92:	0f 85 af 00 00 00    	jne    6b47 <__cxa_finalize@plt+0x1857>
    6a98:	be 08 00 00 00       	mov    esi,0x8
    6a9d:	48 89 df             	mov    rdi,rbx
    6aa0:	ff 15 1a 44 24 00    	call   QWORD PTR [rip+0x24441a]        # 24aec0 <__cxa_finalize@plt+0x245bd0>
    6aa6:	0f 0b                	ud2
    6aa8:	49 c7 45 00 08 00 00 	mov    QWORD PTR [r13+0x0],0x8
    6aaf:	00 
    6ab0:	0f 57 c0             	xorps  xmm0,xmm0
    6ab3:	41 0f 11 45 08       	movups XMMWORD PTR [r13+0x8],xmm0
    6ab8:	49 8b 5f 10          	mov    rbx,QWORD PTR [r15+0x10]
    6abc:	49 8b 47 18          	mov    rax,QWORD PTR [r15+0x18]
    6ac0:	48 29 d8             	sub    rax,rbx
    6ac3:	74 4c                	je     6b11 <__cxa_finalize@plt+0x1821>
    6ac5:	48 c1 f8 03          	sar    rax,0x3
    6ac9:	48 b9 ab aa aa aa aa 	movabs rcx,0xaaaaaaaaaaaaaaab
    6ad0:	aa aa aa 
    6ad3:	48 0f af c8          	imul   rcx,rax
    6ad7:	48 c1 e1 03          	shl    rcx,0x3
    6adb:	4c 8d 34 49          	lea    r14,[rcx+rcx*2]
    6adf:	31 ed                	xor    ebp,ebp
    6ae1:	4c 8d 25 c8 02 00 00 	lea    r12,[rip+0x2c8]        # 6db0 <__cxa_finalize@plt+0x1ac0>
    6ae8:	e9 0c 00 00 00       	jmp    6af9 <__cxa_finalize@plt+0x1809>
    6aed:	0f 1f 00             	nop    DWORD PTR [rax]
    6af0:	48 83 c5 18          	add    rbp,0x18
    6af4:	49 39 ee             	cmp    r14,rbp
    6af7:	74 18                	je     6b11 <__cxa_finalize@plt+0x1821>
    6af9:	48 8b 74 2b 08       	mov    rsi,QWORD PTR [rbx+rbp*1+0x8]
    6afe:	48 85 f6             	test   rsi,rsi
    6b01:	74 ed                	je     6af0 <__cxa_finalize@plt+0x1800>
    6b03:	48 8b 3c 2b          	mov    rdi,QWORD PTR [rbx+rbp*1]
    6b07:	ba 01 00 00 00       	mov    edx,0x1
    6b0c:	41 ff d4             	call   r12
    6b0f:	eb df                	jmp    6af0 <__cxa_finalize@plt+0x1800>
    6b11:	49 8b 47 08          	mov    rax,QWORD PTR [r15+0x8]
    6b15:	48 85 c0             	test   rax,rax
    6b18:	0f 84 cd 01 00 00    	je     6ceb <__cxa_finalize@plt+0x19fb>
    6b1e:	48 c1 e0 03          	shl    rax,0x3
    6b22:	48 8d 34 40          	lea    rsi,[rax+rax*2]
    6b26:	48 85 f6             	test   rsi,rsi
    6b29:	0f 84 bc 01 00 00    	je     6ceb <__cxa_finalize@plt+0x19fb>
    6b2f:	49 8b 3f             	mov    rdi,QWORD PTR [r15]
    6b32:	ba 08 00 00 00       	mov    edx,0x8
    6b37:	ff 15 8b 40 24 00    	call   QWORD PTR [rip+0x24408b]        # 24abc8 <__cxa_finalize@plt+0x2458d8>
    6b3d:	e9 a9 01 00 00       	jmp    6ceb <__cxa_finalize@plt+0x19fb>
    6b42:	b9 08 00 00 00       	mov    ecx,0x8
    6b47:	48 ba ab aa aa aa aa 	movabs rdx,0xaaaaaaaaaaaaaaab
    6b4e:	aa aa aa 
    6b51:	48 89 d8             	mov    rax,rbx
    6b54:	48 f7 e2             	mul    rdx
    6b57:	48 c1 ea 04          	shr    rdx,0x4
    6b5b:	48 8b 44 24 70       	mov    rax,QWORD PTR [rsp+0x70]
    6b60:	48 89 41 10          	mov    QWORD PTR [rcx+0x10],rax
    6b64:	0f 28 44 24 60       	movaps xmm0,XMMWORD PTR [rsp+0x60]
    6b69:	0f 11 01             	movups XMMWORD PTR [rcx],xmm0
    6b6c:	48 89 4c 24 08       	mov    QWORD PTR [rsp+0x8],rcx
    6b71:	48 89 54 24 10       	mov    QWORD PTR [rsp+0x10],rdx
    6b76:	48 c7 44 24 18 01 00 	mov    QWORD PTR [rsp+0x18],0x1
    6b7d:	00 00 
    6b7f:	41 0f 10 07          	movups xmm0,XMMWORD PTR [r15]
    6b83:	41 0f 10 4f 10       	movups xmm1,XMMWORD PTR [r15+0x10]
    6b88:	0f 29 4c 24 50       	movaps XMMWORD PTR [rsp+0x50],xmm1
    6b8d:	0f 29 44 24 40       	movaps XMMWORD PTR [rsp+0x40],xmm0
    6b92:	4c 8d bc 24 80 00 00 	lea    r15,[rsp+0x80]
    6b99:	00 
    6b9a:	48 8d 5c 24 40       	lea    rbx,[rsp+0x40]
    6b9f:	48 8d 2d 8a 84 01 00 	lea    rbp,[rip+0x1848a]        # 1f030 <__cxa_finalize@plt+0x19d40>
    6ba6:	49 c7 c4 ff ff ff ff 	mov    r12,0xffffffffffffffff
    6bad:	4c 8d 6c 24 08       	lea    r13,[rsp+0x8]
    6bb2:	e9 2e 00 00 00       	jmp    6be5 <__cxa_finalize@plt+0x18f5>
    6bb7:	66 0f 1f 84 00 00 00 	nop    WORD PTR [rax+rax*1+0x0]
    6bbe:	00 00 
    6bc0:	48 8b 44 24 08       	mov    rax,QWORD PTR [rsp+0x8]
    6bc5:	4b 8d 0c 76          	lea    rcx,[r14+r14*2]
    6bc9:	48 8b 54 24 30       	mov    rdx,QWORD PTR [rsp+0x30]
    6bce:	48 89 54 c8 10       	mov    QWORD PTR [rax+rcx*8+0x10],rdx
    6bd3:	0f 28 44 24 20       	movaps xmm0,XMMWORD PTR [rsp+0x20]
    6bd8:	0f 11 04 c8          	movups XMMWORD PTR [rax+rcx*8],xmm0
    6bdc:	49 83 c6 01          	add    r14,0x1
    6be0:	4c 89 74 24 18       	mov    QWORD PTR [rsp+0x18],r14
    6be5:	4c 89 ff             	mov    rdi,r15
    6be8:	48 89 de             	mov    rsi,rbx
    6beb:	ff d5                	call   rbp
    6bed:	48 83 bc 24 80 00 00 	cmp    QWORD PTR [rsp+0x80],0x0
    6bf4:	00 00 
    6bf6:	74 52                	je     6c4a <__cxa_finalize@plt+0x195a>
    6bf8:	48 8b 84 24 90 00 00 	mov    rax,QWORD PTR [rsp+0x90]
    6bff:	00 
    6c00:	48 89 44 24 30       	mov    QWORD PTR [rsp+0x30],rax
    6c05:	0f 10 84 24 80 00 00 	movups xmm0,XMMWORD PTR [rsp+0x80]
    6c0c:	00 
    6c0d:	0f 29 44 24 20       	movaps XMMWORD PTR [rsp+0x20],xmm0
    6c12:	4c 8b 74 24 18       	mov    r14,QWORD PTR [rsp+0x18]
    6c17:	4c 3b 74 24 10       	cmp    r14,QWORD PTR [rsp+0x10]
    6c1c:	75 a2                	jne    6bc0 <__cxa_finalize@plt+0x18d0>
    6c1e:	48 8d 7c 24 60       	lea    rdi,[rsp+0x60]
    6c23:	48 89 de             	mov    rsi,rbx
    6c26:	ff 15 fc 3e 24 00    	call   QWORD PTR [rip+0x243efc]        # 24ab28 <__cxa_finalize@plt+0x245838>
    6c2c:	48 8b 54 24 60       	mov    rdx,QWORD PTR [rsp+0x60]
    6c31:	48 ff c2             	inc    rdx
    6c34:	49 0f 44 d4          	cmove  rdx,r12
    6c38:	48 8b 74 24 18       	mov    rsi,QWORD PTR [rsp+0x18]
    6c3d:	4c 89 ef             	mov    rdi,r13
    6c40:	e8 7b fb ff ff       	call   67c0 <__cxa_finalize@plt+0x14d0>
    6c45:	e9 76 ff ff ff       	jmp    6bc0 <__cxa_finalize@plt+0x18d0>
    6c4a:	48 8b 5c 24 50       	mov    rbx,QWORD PTR [rsp+0x50]
    6c4f:	48 8b 44 24 58       	mov    rax,QWORD PTR [rsp+0x58]
    6c54:	48 29 d8             	sub    rax,rbx
    6c57:	4c 8b 6c 24 78       	mov    r13,QWORD PTR [rsp+0x78]
    6c5c:	0f 84 4f 00 00 00    	je     6cb1 <__cxa_finalize@plt+0x19c1>
    6c62:	48 c1 f8 03          	sar    rax,0x3
    6c66:	48 b9 ab aa aa aa aa 	movabs rcx,0xaaaaaaaaaaaaaaab
    6c6d:	aa aa aa 
    6c70:	48 0f af c1          	imul   rax,rcx
    6c74:	48 c1 e0 03          	shl    rax,0x3
    6c78:	4c 8d 34 40          	lea    r14,[rax+rax*2]
    6c7c:	31 ed                	xor    ebp,ebp
    6c7e:	4c 8d 3d 2b 01 00 00 	lea    r15,[rip+0x12b]        # 6db0 <__cxa_finalize@plt+0x1ac0>
    6c85:	e9 0f 00 00 00       	jmp    6c99 <__cxa_finalize@plt+0x19a9>
    6c8a:	66 0f 1f 44 00 00    	nop    WORD PTR [rax+rax*1+0x0]
    6c90:	48 83 c5 18          	add    rbp,0x18
    6c94:	49 39 ee             	cmp    r14,rbp
    6c97:	74 18                	je     6cb1 <__cxa_finalize@plt+0x19c1>
    6c99:	48 8b 74 2b 08       	mov    rsi,QWORD PTR [rbx+rbp*1+0x8]
    6c9e:	48 85 f6             	test   rsi,rsi
    6ca1:	74 ed                	je     6c90 <__cxa_finalize@plt+0x19a0>
    6ca3:	48 8b 3c 2b          	mov    rdi,QWORD PTR [rbx+rbp*1]
    6ca7:	ba 01 00 00 00       	mov    edx,0x1
    6cac:	41 ff d7             	call   r15
    6caf:	eb df                	jmp    6c90 <__cxa_finalize@plt+0x19a0>
    6cb1:	48 8b 44 24 48       	mov    rax,QWORD PTR [rsp+0x48]
    6cb6:	48 85 c0             	test   rax,rax
    6cb9:	74 1d                	je     6cd8 <__cxa_finalize@plt+0x19e8>
    6cbb:	48 c1 e0 03          	shl    rax,0x3
    6cbf:	48 8d 34 40          	lea    rsi,[rax+rax*2]
    6cc3:	48 85 f6             	test   rsi,rsi
    6cc6:	74 10                	je     6cd8 <__cxa_finalize@plt+0x19e8>
    6cc8:	48 8b 7c 24 40       	mov    rdi,QWORD PTR [rsp+0x40]
    6ccd:	ba 08 00 00 00       	mov    edx,0x8
    6cd2:	ff 15 f0 3e 24 00    	call   QWORD PTR [rip+0x243ef0]        # 24abc8 <__cxa_finalize@plt+0x2458d8>
    6cd8:	48 8b 44 24 18       	mov    rax,QWORD PTR [rsp+0x18]
    6cdd:	49 89 45 10          	mov    QWORD PTR [r13+0x10],rax
    6ce1:	0f 10 44 24 08       	movups xmm0,XMMWORD PTR [rsp+0x8]
    6ce6:	41 0f 11 45 00       	movups XMMWORD PTR [r13+0x0],xmm0
    6ceb:	4c 89 e8             	mov    rax,r13
    6cee:	48 81 c4 98 00 00 00 	add    rsp,0x98
    6cf5:	5b                   	pop    rbx
    6cf6:	41 5c                	pop    r12
    6cf8:	41 5d                	pop    r13
    6cfa:	41 5e                	pop    r14
    6cfc:	41 5f                	pop    r15
    6cfe:	5d                   	pop    rbp
    6cff:	c3                   	ret
    6d00:	ff 15 82 42 24 00    	call   QWORD PTR [rip+0x244282]        # 24af88 <__cxa_finalize@plt+0x245c98>
    6d06:	0f 0b                	ud2
    6d08:	49 89 c6             	mov    r14,rax
    6d0b:	48 8d 7c 24 60       	lea    rdi,[rsp+0x60]
    6d10:	e8 cb fc ff ff       	call   69e0 <__cxa_finalize@plt+0x16f0>
    6d15:	eb 03                	jmp    6d1a <__cxa_finalize@plt+0x1a2a>
    6d17:	49 89 c6             	mov    r14,rax
    6d1a:	4c 89 ff             	mov    rdi,r15
    6d1d:	e8 8e fb ff ff       	call   68b0 <__cxa_finalize@plt+0x15c0>
    6d22:	eb 26                	jmp    6d4a <__cxa_finalize@plt+0x1a5a>
    6d24:	49 89 c6             	mov    r14,rax
    6d27:	48 8d 7c 24 20       	lea    rdi,[rsp+0x20]
    6d2c:	e8 af fc ff ff       	call   69e0 <__cxa_finalize@plt+0x16f0>
    6d31:	eb 03                	jmp    6d36 <__cxa_finalize@plt+0x1a46>
    6d33:	49 89 c6             	mov    r14,rax
    6d36:	48 8d 7c 24 40       	lea    rdi,[rsp+0x40]
    6d3b:	e8 70 fb ff ff       	call   68b0 <__cxa_finalize@plt+0x15c0>
    6d40:	48 8d 7c 24 08       	lea    rdi,[rsp+0x8]
    6d45:	e8 06 fc ff ff       	call   6950 <__cxa_finalize@plt+0x1660>
    6d4a:	4c 89 f7             	mov    rdi,r14
    6d4d:	e8 8e e5 ff ff       	call   52e0 <_Unwind_Resume@plt>
    6d52:	0f 0b                	ud2
    6d54:	49 89 c6             	mov    r14,rax
    6d57:	eb e7                	jmp    6d40 <__cxa_finalize@plt+0x1a50>
    6d59:	0f 1f 80 00 00 00 00 	nop    DWORD PTR [rax+0x0]
    6d60:	50                   	push   rax
    6d61:	ff d7                	call   rdi
    6d63:	48 89 e0             	mov    rax,rsp
    6d66:	58                   	pop    rax
    6d67:	c3                   	ret
    6d68:	0f 1f 84 00 00 00 00 	nop    DWORD PTR [rax+rax*1+0x0]
    6d6f:	00 
    6d70:	50                   	push   rax
    6d71:	48 8b 3f             	mov    rdi,QWORD PTR [rdi]
    6d74:	e8 e7 ff ff ff       	call   6d60 <__cxa_finalize@plt+0x1a70>
    6d79:	31 c0                	xor    eax,eax
    6d7b:	59                   	pop    rcx
    6d7c:	c3                   	ret
    6d7d:	0f 1f 00             	nop    DWORD PTR [rax]
    6d80:	50                   	push   rax
    6d81:	48 8b 3f             	mov    rdi,QWORD PTR [rdi]
    6d84:	e8 d7 ff ff ff       	call   6d60 <__cxa_finalize@plt+0x1a70>
    6d89:	31 c0                	xor    eax,eax
    6d8b:	59                   	pop    rcx
    6d8c:	c3                   	ret
    6d8d:	0f 1f 00             	nop    DWORD PTR [rax]
    6d90:	c3                   	ret
    6d91:	66 2e 0f 1f 84 00 00 	cs nop WORD PTR [rax+rax*1+0x0]
    6d98:	00 00 00 
    6d9b:	0f 1f 44 00 00       	nop    DWORD PTR [rax+rax*1+0x0]
    6da0:	e9 eb 3e 01 00       	jmp    1ac90 <__cxa_finalize@plt+0x159a0>
    6da5:	66 2e 0f 1f 84 00 00 	cs nop WORD PTR [rax+rax*1+0x0]
    6dac:	00 00 00 
    6daf:	90                   	nop
    6db0:	e9 2b 3f 01 00       	jmp    1ace0 <__cxa_finalize@plt+0x159f0>
    6db5:	66 2e 0f 1f 84 00 00 	cs nop WORD PTR [rax+rax*1+0x0]
    6dbc:	00 00 00 
    6dbf:	90                   	nop
    6dc0:	e9 2b 3f 01 00       	jmp    1acf0 <__cxa_finalize@plt+0x15a00>
    6dc5:	66 2e 0f 1f 84 00 00 	cs nop WORD PTR [rax+rax*1+0x0]
    6dcc:	00 00 00 
    6dcf:	90                   	nop
    6dd0:	e9 bb 3f 01 00       	jmp    1ad90 <__cxa_finalize@plt+0x15aa0>
    6dd5:	66 2e 0f 1f 84 00 00 	cs nop WORD PTR [rax+rax*1+0x0]
    6ddc:	00 00 00 
    6ddf:	90                   	nop
    6de0:	41 56                	push   r14
    6de2:	53                   	push   rbx
    6de3:	50                   	push   rax
    6de4:	48 89 fb             	mov    rbx,rdi
    6de7:	80 7f 08 00          	cmp    BYTE PTR [rdi+0x8],0x0
    6deb:	75 12                	jne    6dff <__cxa_finalize@plt+0x1b0f>
    6ded:	4c 8b 33             	mov    r14,QWORD PTR [rbx]
    6df0:	48 8d 05 d9 43 24 00 	lea    rax,[rip+0x2443d9]        # 24b1d0 <__cxa_finalize@plt+0x245ee0>
    6df7:	48 8b 00             	mov    rax,QWORD PTR [rax]
    6dfa:	48 85 c0             	test   rax,rax
    6dfd:	75 13                	jne    6e12 <__cxa_finalize@plt+0x1b22>
    6dff:	48 8b 03             	mov    rax,QWORD PTR [rbx]
    6e02:	48 8b 38             	mov    rdi,QWORD PTR [rax]
    6e05:	48 83 c4 08          	add    rsp,0x8
    6e09:	5b                   	pop    rbx
    6e0a:	41 5e                	pop    r14
    6e0c:	ff 25 86 41 24 00    	jmp    QWORD PTR [rip+0x244186]        # 24af98 <__cxa_finalize@plt+0x245ca8>
    6e12:	ff 15 68 3c 24 00    	call   QWORD PTR [rip+0x243c68]        # 24aa80 <__cxa_finalize@plt+0x245790>
    6e18:	84 c0                	test   al,al
    6e1a:	75 e3                	jne    6dff <__cxa_finalize@plt+0x1b0f>
    6e1c:	41 c6 46 08 01       	mov    BYTE PTR [r14+0x8],0x1
    6e21:	eb dc                	jmp    6dff <__cxa_finalize@plt+0x1b0f>
    6e23:	66 2e 0f 1f 84 00 00 	cs nop WORD PTR [rax+rax*1+0x0]
    6e2a:	00 00 00 
    6e2d:	0f 1f 00             	nop    DWORD PTR [rax]
    6e30:	48 83 07 01          	add    QWORD PTR [rdi],0x1
    6e34:	c3                   	ret
    6e35:	66 2e 0f 1f 84 00 00 	cs nop WORD PTR [rax+rax*1+0x0]
    6e3c:	00 00 00 
    6e3f:	90                   	nop
    6e40:	41 56                	push   r14
    6e42:	53                   	push   rbx
    6e43:	50                   	push   rax
    6e44:	48 89 fb             	mov    rbx,rdi
    6e47:	48 8b 3f             	mov    rdi,QWORD PTR [rdi]
    6e4a:	48 8b 43 08          	mov    rax,QWORD PTR [rbx+0x8]
    6e4e:	ff 10                	call   QWORD PTR [rax]
    6e50:	48 8b 43 08          	mov    rax,QWORD PTR [rbx+0x8]
    6e54:	48 8b 70 08          	mov    rsi,QWORD PTR [rax+0x8]
    6e58:	48 85 f6             	test   rsi,rsi
    6e5b:	74 14                	je     6e71 <__cxa_finalize@plt+0x1b81>
    6e5d:	48 8b 3b             	mov    rdi,QWORD PTR [rbx]
    6e60:	48 8b 50 10          	mov    rdx,QWORD PTR [rax+0x10]
    6e64:	48 83 c4 08          	add    rsp,0x8
    6e68:	5b                   	pop    rbx
    6e69:	41 5e                	pop    r14
    6e6b:	ff 25 57 3d 24 00    	jmp    QWORD PTR [rip+0x243d57]        # 24abc8 <__cxa_finalize@plt+0x2458d8>
    6e71:	48 83 c4 08          	add    rsp,0x8
    6e75:	5b                   	pop    rbx
    6e76:	41 5e                	pop    r14
    6e78:	c3                   	ret
    6e79:	49 89 c6             	mov    r14,rax
    6e7c:	48 8b 3b             	mov    rdi,QWORD PTR [rbx]
    6e7f:	48 8b 73 08          	mov    rsi,QWORD PTR [rbx+0x8]
    6e83:	e8 b8 03 00 00       	call   7240 <__cxa_finalize@plt+0x1f50>
    6e88:	4c 89 f7             	mov    rdi,r14
    6e8b:	e8 50 e4 ff ff       	call   52e0 <_Unwind_Resume@plt>
    6e90:	0f 0b                	ud2
    6e92:	66 2e 0f 1f 84 00 00 	cs nop WORD PTR [rax+rax*1+0x0]
    6e99:	00 00 00 
    6e9c:	0f 1f 40 00          	nop    DWORD PTR [rax+0x0]
    6ea0:	41 57                	push   r15
    6ea2:	41 56                	push   r14
    6ea4:	53                   	push   rbx
    6ea5:	48 89 fb             	mov    rbx,rdi
    6ea8:	8a 47 08             	mov    al,BYTE PTR [rdi+0x8]
    6eab:	3c 03                	cmp    al,0x3
    6ead:	77 0a                	ja     6eb9 <__cxa_finalize@plt+0x1bc9>
    6eaf:	3c 02                	cmp    al,0x2
    6eb1:	74 06                	je     6eb9 <__cxa_finalize@plt+0x1bc9>
    6eb3:	5b                   	pop    rbx
    6eb4:	41 5e                	pop    r14
    6eb6:	41 5f                	pop    r15
    6eb8:	c3                   	ret
    6eb9:	4c 8b 7b 10          	mov    r15,QWORD PTR [rbx+0x10]
    6ebd:	49 8b 3f             	mov    rdi,QWORD PTR [r15]
    6ec0:	49 8b 47 08          	mov    rax,QWORD PTR [r15+0x8]
    6ec4:	ff 10                	call   QWORD PTR [rax]
    6ec6:	49 8b 47 08          	mov    rax,QWORD PTR [r15+0x8]
    6eca:	48 8b 70 08          	mov    rsi,QWORD PTR [rax+0x8]
    6ece:	48 85 f6             	test   rsi,rsi
    6ed1:	74 0d                	je     6ee0 <__cxa_finalize@plt+0x1bf0>
    6ed3:	48 8b 50 10          	mov    rdx,QWORD PTR [rax+0x10]
    6ed7:	49 8b 3f             	mov    rdi,QWORD PTR [r15]
    6eda:	ff 15 e8 3c 24 00    	call   QWORD PTR [rip+0x243ce8]        # 24abc8 <__cxa_finalize@plt+0x2458d8>
    6ee0:	48 8b 7b 10          	mov    rdi,QWORD PTR [rbx+0x10]
    6ee4:	be 18 00 00 00       	mov    esi,0x18
    6ee9:	ba 08 00 00 00       	mov    edx,0x8
    6eee:	5b                   	pop    rbx
    6eef:	41 5e                	pop    r14
    6ef1:	41 5f                	pop    r15
    6ef3:	ff 25 cf 3c 24 00    	jmp    QWORD PTR [rip+0x243ccf]        # 24abc8 <__cxa_finalize@plt+0x2458d8>
    6ef9:	49 89 c6             	mov    r14,rax
    6efc:	49 8b 3f             	mov    rdi,QWORD PTR [r15]
    6eff:	49 8b 77 08          	mov    rsi,QWORD PTR [r15+0x8]
    6f03:	e8 38 03 00 00       	call   7240 <__cxa_finalize@plt+0x1f50>
    6f08:	48 8b 7b 10          	mov    rdi,QWORD PTR [rbx+0x10]
    6f0c:	e8 4f 03 00 00       	call   7260 <__cxa_finalize@plt+0x1f70>
    6f11:	4c 89 f7             	mov    rdi,r14
    6f14:	e8 c7 e3 ff ff       	call   52e0 <_Unwind_Resume@plt>
    6f19:	0f 0b                	ud2
    6f1b:	0f 1f 44 00 00       	nop    DWORD PTR [rax+rax*1+0x0]
    6f20:	41 57                	push   r15
    6f22:	41 56                	push   r14
    6f24:	41 55                	push   r13
    6f26:	41 54                	push   r12
    6f28:	53                   	push   rbx
    6f29:	49 89 fe             	mov    r14,rdi
    6f2c:	48 8b 47 10          	mov    rax,QWORD PTR [rdi+0x10]
    6f30:	48 85 c0             	test   rax,rax
    6f33:	74 4b                	je     6f80 <__cxa_finalize@plt+0x1c90>
    6f35:	4d 8b 26             	mov    r12,QWORD PTR [r14]
    6f38:	4c 6b f8 70          	imul   r15,rax,0x70
    6f3c:	31 db                	xor    ebx,ebx
    6f3e:	4c 8d 2d 6b fe ff ff 	lea    r13,[rip+0xfffffffffffffe6b]        # 6db0 <__cxa_finalize@plt+0x1ac0>
    6f45:	eb 12                	jmp    6f59 <__cxa_finalize@plt+0x1c69>
    6f47:	66 0f 1f 84 00 00 00 	nop    WORD PTR [rax+rax*1+0x0]
    6f4e:	00 00 
    6f50:	48 83 c3 70          	add    rbx,0x70
    6f54:	49 39 df             	cmp    r15,rbx
    6f57:	74 27                	je     6f80 <__cxa_finalize@plt+0x1c90>
    6f59:	49 83 7c 1c 08 00    	cmp    QWORD PTR [r12+rbx*1+0x8],0x0
    6f5f:	74 ef                	je     6f50 <__cxa_finalize@plt+0x1c60>
    6f61:	49 8b 74 1c 18       	mov    rsi,QWORD PTR [r12+rbx*1+0x18]
    6f66:	48 85 f6             	test   rsi,rsi
    6f69:	74 e5                	je     6f50 <__cxa_finalize@plt+0x1c60>
    6f6b:	48 c1 e6 04          	shl    rsi,0x4
    6f6f:	74 df                	je     6f50 <__cxa_finalize@plt+0x1c60>
    6f71:	49 8b 7c 1c 10       	mov    rdi,QWORD PTR [r12+rbx*1+0x10]
    6f76:	ba 08 00 00 00       	mov    edx,0x8
    6f7b:	41 ff d5             	call   r13
    6f7e:	eb d0                	jmp    6f50 <__cxa_finalize@plt+0x1c60>
    6f80:	49 8b 46 08          	mov    rax,QWORD PTR [r14+0x8]
    6f84:	48 85 c0             	test   rax,rax
    6f87:	74 17                	je     6fa0 <__cxa_finalize@plt+0x1cb0>
    6f89:	48 6b f0 70          	imul   rsi,rax,0x70
    6f8d:	48 85 f6             	test   rsi,rsi
    6f90:	74 0e                	je     6fa0 <__cxa_finalize@plt+0x1cb0>
    6f92:	49 8b 3e             	mov    rdi,QWORD PTR [r14]
    6f95:	ba 08 00 00 00       	mov    edx,0x8
    6f9a:	ff 15 28 3c 24 00    	call   QWORD PTR [rip+0x243c28]        # 24abc8 <__cxa_finalize@plt+0x2458d8>
    6fa0:	49 83 c6 18          	add    r14,0x18
    6fa4:	4c 89 f7             	mov    rdi,r14
    6fa7:	5b                   	pop    rbx
    6fa8:	41 5c                	pop    r12
    6faa:	41 5d                	pop    r13
    6fac:	41 5e                	pop    r14
    6fae:	41 5f                	pop    r15
    6fb0:	e9 fb a8 00 00       	jmp    118b0 <__cxa_finalize@plt+0xc5c0>
    6fb5:	66 2e 0f 1f 84 00 00 	cs nop WORD PTR [rax+rax*1+0x0]
    6fbc:	00 00 00 
    6fbf:	90                   	nop
    6fc0:	41 57                	push   r15
    6fc2:	41 56                	push   r14
    6fc4:	53                   	push   rbx
    6fc5:	48 89 fb             	mov    rbx,rdi
    6fc8:	8a 07                	mov    al,BYTE PTR [rdi]
    6fca:	3c 03                	cmp    al,0x3
    6fcc:	77 0a                	ja     6fd8 <__cxa_finalize@plt+0x1ce8>
    6fce:	3c 02                	cmp    al,0x2
    6fd0:	74 06                	je     6fd8 <__cxa_finalize@plt+0x1ce8>
    6fd2:	5b                   	pop    rbx
    6fd3:	41 5e                	pop    r14
    6fd5:	41 5f                	pop    r15
    6fd7:	c3                   	ret
    6fd8:	4c 8b 7b 08          	mov    r15,QWORD PTR [rbx+0x8]
    6fdc:	49 8b 3f             	mov    rdi,QWORD PTR [r15]
    6fdf:	49 8b 47 08          	mov    rax,QWORD PTR [r15+0x8]
    6fe3:	ff 10                	call   QWORD PTR [rax]
    6fe5:	49 8b 47 08          	mov    rax,QWORD PTR [r15+0x8]
    6fe9:	48 8b 70 08          	mov    rsi,QWORD PTR [rax+0x8]
    6fed:	48 85 f6             	test   rsi,rsi
    6ff0:	74 0d                	je     6fff <__cxa_finalize@plt+0x1d0f>
    6ff2:	48 8b 50 10          	mov    rdx,QWORD PTR [rax+0x10]
    6ff6:	49 8b 3f             	mov    rdi,QWORD PTR [r15]
    6ff9:	ff 15 c9 3b 24 00    	call   QWORD PTR [rip+0x243bc9]        # 24abc8 <__cxa_finalize@plt+0x2458d8>
    6fff:	48 8b 7b 08          	mov    rdi,QWORD PTR [rbx+0x8]
    7003:	be 18 00 00 00       	mov    esi,0x18
    7008:	ba 08 00 00 00       	mov    edx,0x8
    700d:	5b                   	pop    rbx
    700e:	41 5e                	pop    r14
    7010:	41 5f                	pop    r15
    7012:	ff 25 b0 3b 24 00    	jmp    QWORD PTR [rip+0x243bb0]        # 24abc8 <__cxa_finalize@plt+0x2458d8>
    7018:	49 89 c6             	mov    r14,rax
    701b:	49 8b 3f             	mov    rdi,QWORD PTR [r15]
    701e:	49 8b 77 08          	mov    rsi,QWORD PTR [r15+0x8]
    7022:	e8 19 02 00 00       	call   7240 <__cxa_finalize@plt+0x1f50>
    7027:	48 8b 7b 08          	mov    rdi,QWORD PTR [rbx+0x8]
    702b:	e8 30 02 00 00       	call   7260 <__cxa_finalize@plt+0x1f70>
    7030:	4c 89 f7             	mov    rdi,r14
    7033:	e8 a8 e2 ff ff       	call   52e0 <_Unwind_Resume@plt>
    7038:	0f 0b                	ud2
    703a:	66 0f 1f 44 00 00    	nop    WORD PTR [rax+rax*1+0x0]
    7040:	41 56                	push   r14
    7042:	53                   	push   rbx
    7043:	50                   	push   rax
    7044:	48 89 fb             	mov    rbx,rdi
    7047:	48 8b 3f             	mov    rdi,QWORD PTR [rdi]
    704a:	48 85 ff             	test   rdi,rdi
    704d:	74 27                	je     7076 <__cxa_finalize@plt+0x1d86>
    704f:	48 8b 43 08          	mov    rax,QWORD PTR [rbx+0x8]
    7053:	ff 10                	call   QWORD PTR [rax]
    7055:	48 8b 43 08          	mov    rax,QWORD PTR [rbx+0x8]
    7059:	48 8b 70 08          	mov    rsi,QWORD PTR [rax+0x8]
    705d:	48 85 f6             	test   rsi,rsi
    7060:	74 14                	je     7076 <__cxa_finalize@plt+0x1d86>
    7062:	48 8b 3b             	mov    rdi,QWORD PTR [rbx]
    7065:	48 8b 50 10          	mov    rdx,QWORD PTR [rax+0x10]
    7069:	48 83 c4 08          	add    rsp,0x8
    706d:	5b                   	pop    rbx
    706e:	41 5e                	pop    r14
    7070:	ff 25 52 3b 24 00    	jmp    QWORD PTR [rip+0x243b52]        # 24abc8 <__cxa_finalize@plt+0x2458d8>
    7076:	48 83 c4 08          	add    rsp,0x8
    707a:	5b                   	pop    rbx
    707b:	41 5e                	pop    r14
    707d:	c3                   	ret
    707e:	49 89 c6             	mov    r14,rax
    7081:	48 8b 3b             	mov    rdi,QWORD PTR [rbx]
    7084:	48 8b 73 08          	mov    rsi,QWORD PTR [rbx+0x8]
    7088:	e8 b3 01 00 00       	call   7240 <__cxa_finalize@plt+0x1f50>
    708d:	4c 89 f7             	mov    rdi,r14
    7090:	e8 4b e2 ff ff       	call   52e0 <_Unwind_Resume@plt>
    7095:	0f 0b                	ud2
    7097:	66 0f 1f 84 00 00 00 	nop    WORD PTR [rax+rax*1+0x0]
    709e:	00 00 
    70a0:	48 8b 3f             	mov    rdi,QWORD PTR [rdi]
    70a3:	ff 25 ef 3e 24 00    	jmp    QWORD PTR [rip+0x243eef]        # 24af98 <__cxa_finalize@plt+0x245ca8>
    70a9:	0f 1f 80 00 00 00 00 	nop    DWORD PTR [rax+0x0]
    70b0:	48 8b 77 08          	mov    rsi,QWORD PTR [rdi+0x8]
    70b4:	48 85 f6             	test   rsi,rsi
    70b7:	74 0e                	je     70c7 <__cxa_finalize@plt+0x1dd7>
    70b9:	48 8b 3f             	mov    rdi,QWORD PTR [rdi]
    70bc:	ba 01 00 00 00       	mov    edx,0x1
    70c1:	ff 25 01 3b 24 00    	jmp    QWORD PTR [rip+0x243b01]        # 24abc8 <__cxa_finalize@plt+0x2458d8>
    70c7:	c3                   	ret
    70c8:	0f 1f 84 00 00 00 00 	nop    DWORD PTR [rax+rax*1+0x0]
    70cf:	00 
    70d0:	c3                   	ret
    70d1:	66 2e 0f 1f 84 00 00 	cs nop WORD PTR [rax+rax*1+0x0]
    70d8:	00 00 00 
    70db:	0f 1f 44 00 00       	nop    DWORD PTR [rax+rax*1+0x0]
    70e0:	53                   	push   rbx
    70e1:	83 bf a8 00 00 00 2e 	cmp    DWORD PTR [rdi+0xa8],0x2e
    70e8:	0f 84 89 00 00 00    	je     7177 <__cxa_finalize@plt+0x1e87>
    70ee:	48 89 fb             	mov    rbx,rdi
    70f1:	48 8b 77 30          	mov    rsi,QWORD PTR [rdi+0x30]
    70f5:	48 85 f6             	test   rsi,rsi
    70f8:	74 18                	je     7112 <__cxa_finalize@plt+0x1e22>
    70fa:	48 c1 e6 02          	shl    rsi,0x2
    70fe:	48 85 f6             	test   rsi,rsi
    7101:	74 0f                	je     7112 <__cxa_finalize@plt+0x1e22>
    7103:	48 8b 7b 28          	mov    rdi,QWORD PTR [rbx+0x28]
    7107:	ba 02 00 00 00       	mov    edx,0x2
    710c:	ff 15 b6 3a 24 00    	call   QWORD PTR [rip+0x243ab6]        # 24abc8 <__cxa_finalize@plt+0x2458d8>
    7112:	48 8b 43 48          	mov    rax,QWORD PTR [rbx+0x48]
    7116:	48 85 c0             	test   rax,rax
    7119:	74 1c                	je     7137 <__cxa_finalize@plt+0x1e47>
    711b:	48 c1 e0 03          	shl    rax,0x3
    711f:	48 8d 34 40          	lea    rsi,[rax+rax*2]
    7123:	48 85 f6             	test   rsi,rsi
    7126:	74 0f                	je     7137 <__cxa_finalize@plt+0x1e47>
    7128:	48 8b 7b 40          	mov    rdi,QWORD PTR [rbx+0x40]
    712c:	ba 08 00 00 00       	mov    edx,0x8
    7131:	ff 15 91 3a 24 00    	call   QWORD PTR [rip+0x243a91]        # 24abc8 <__cxa_finalize@plt+0x2458d8>
    7137:	48 8b 73 60          	mov    rsi,QWORD PTR [rbx+0x60]
    713b:	48 85 f6             	test   rsi,rsi
    713e:	74 18                	je     7158 <__cxa_finalize@plt+0x1e68>
    7140:	48 c1 e6 02          	shl    rsi,0x2
    7144:	48 85 f6             	test   rsi,rsi
    7147:	74 0f                	je     7158 <__cxa_finalize@plt+0x1e68>
    7149:	48 8b 7b 58          	mov    rdi,QWORD PTR [rbx+0x58]
    714d:	ba 02 00 00 00       	mov    edx,0x2
    7152:	ff 15 70 3a 24 00    	call   QWORD PTR [rip+0x243a70]        # 24abc8 <__cxa_finalize@plt+0x2458d8>
    7158:	48 8b 73 78          	mov    rsi,QWORD PTR [rbx+0x78]
    715c:	48 85 f6             	test   rsi,rsi
    715f:	74 16                	je     7177 <__cxa_finalize@plt+0x1e87>
    7161:	48 c1 e6 06          	shl    rsi,0x6
    7165:	74 10                	je     7177 <__cxa_finalize@plt+0x1e87>
    7167:	48 8b 7b 70          	mov    rdi,QWORD PTR [rbx+0x70]
    716b:	ba 08 00 00 00       	mov    edx,0x8
    7170:	5b                   	pop    rbx
    7171:	ff 25 51 3a 24 00    	jmp    QWORD PTR [rip+0x243a51]        # 24abc8 <__cxa_finalize@plt+0x2458d8>
    7177:	5b                   	pop    rbx
    7178:	c3                   	ret
    7179:	0f 1f 80 00 00 00 00 	nop    DWORD PTR [rax+0x0]
    7180:	53                   	push   rbx
    7181:	48 89 fb             	mov    rbx,rdi
    7184:	48 8b 3f             	mov    rdi,QWORD PTR [rdi]
    7187:	ff 15 43 38 24 00    	call   QWORD PTR [rip+0x243843]        # 24a9d0 <__cxa_finalize@plt+0x2456e0>
    718d:	48 8b 3b             	mov    rdi,QWORD PTR [rbx]
    7190:	be 30 00 00 00       	mov    esi,0x30
    7195:	ba 08 00 00 00       	mov    edx,0x8
    719a:	5b                   	pop    rbx
    719b:	ff 25 27 3a 24 00    	jmp    QWORD PTR [rip+0x243a27]        # 24abc8 <__cxa_finalize@plt+0x2458d8>
    71a1:	66 2e 0f 1f 84 00 00 	cs nop WORD PTR [rax+rax*1+0x0]
    71a8:	00 00 00 
    71ab:	0f 1f 44 00 00       	nop    DWORD PTR [rax+rax*1+0x0]
    71b0:	48 8b 07             	mov    rax,QWORD PTR [rdi]
    71b3:	f0 48 83 28 01       	lock sub QWORD PTR [rax],0x1
    71b8:	75 05                	jne    71bf <__cxa_finalize@plt+0x1ecf>
    71ba:	e9 61 9c 01 00       	jmp    20e20 <__cxa_finalize@plt+0x1bb30>
    71bf:	c3                   	ret
    71c0:	41 57                	push   r15
    71c2:	41 56                	push   r14
    71c4:	53                   	push   rbx
    71c5:	80 3f 02             	cmp    BYTE PTR [rdi],0x2
    71c8:	73 06                	jae    71d0 <__cxa_finalize@plt+0x1ee0>
    71ca:	5b                   	pop    rbx
    71cb:	41 5e                	pop    r14
    71cd:	41 5f                	pop    r15
    71cf:	c3                   	ret
    71d0:	49 89 ff             	mov    r15,rdi
    71d3:	48 8b 5f 08          	mov    rbx,QWORD PTR [rdi+0x8]
    71d7:	48 8b 3b             	mov    rdi,QWORD PTR [rbx]
    71da:	48 8b 43 08          	mov    rax,QWORD PTR [rbx+0x8]
    71de:	ff 10                	call   QWORD PTR [rax]
    71e0:	48 8b 43 08          	mov    rax,QWORD PTR [rbx+0x8]
    71e4:	48 8b 70 08          	mov    rsi,QWORD PTR [rax+0x8]
    71e8:	48 85 f6             	test   rsi,rsi
    71eb:	74 0d                	je     71fa <__cxa_finalize@plt+0x1f0a>
    71ed:	48 8b 50 10          	mov    rdx,QWORD PTR [rax+0x10]
    71f1:	48 8b 3b             	mov    rdi,QWORD PTR [rbx]
    71f4:	ff 15 ce 39 24 00    	call   QWORD PTR [rip+0x2439ce]        # 24abc8 <__cxa_finalize@plt+0x2458d8>
    71fa:	49 8b 7f 08          	mov    rdi,QWORD PTR [r15+0x8]
    71fe:	be 18 00 00 00       	mov    esi,0x18
    7203:	ba 08 00 00 00       	mov    edx,0x8
    7208:	5b                   	pop    rbx
    7209:	41 5e                	pop    r14
    720b:	41 5f                	pop    r15
    720d:	ff 25 b5 39 24 00    	jmp    QWORD PTR [rip+0x2439b5]        # 24abc8 <__cxa_finalize@plt+0x2458d8>
    7213:	49 89 c6             	mov    r14,rax
    7216:	48 8b 3b             	mov    rdi,QWORD PTR [rbx]
    7219:	48 8b 73 08          	mov    rsi,QWORD PTR [rbx+0x8]
    721d:	e8 1e 00 00 00       	call   7240 <__cxa_finalize@plt+0x1f50>
    7222:	49 8b 7f 08          	mov    rdi,QWORD PTR [r15+0x8]
    7226:	e8 35 00 00 00       	call   7260 <__cxa_finalize@plt+0x1f70>
    722b:	4c 89 f7             	mov    rdi,r14
    722e:	e8 ad e0 ff ff       	call   52e0 <_Unwind_Resume@plt>
    7233:	0f 0b                	ud2
    7235:	66 2e 0f 1f 84 00 00 	cs nop WORD PTR [rax+rax*1+0x0]
    723c:	00 00 00 
    723f:	90                   	nop
    7240:	48 89 f0             	mov    rax,rsi
    7243:	48 8b 76 08          	mov    rsi,QWORD PTR [rsi+0x8]
    7247:	48 85 f6             	test   rsi,rsi
    724a:	74 0a                	je     7256 <__cxa_finalize@plt+0x1f66>
    724c:	48 8b 50 10          	mov    rdx,QWORD PTR [rax+0x10]
    7250:	ff 25 72 39 24 00    	jmp    QWORD PTR [rip+0x243972]        # 24abc8 <__cxa_finalize@plt+0x2458d8>
    7256:	c3                   	ret
    7257:	66 0f 1f 84 00 00 00 	nop    WORD PTR [rax+rax*1+0x0]
    725e:	00 00 
    7260:	be 18 00 00 00       	mov    esi,0x18
    7265:	ba 08 00 00 00       	mov    edx,0x8
    726a:	ff 25 58 39 24 00    	jmp    QWORD PTR [rip+0x243958]        # 24abc8 <__cxa_finalize@plt+0x2458d8>
    7270:	55                   	push   rbp
    7271:	41 57                	push   r15
    7273:	41 56                	push   r14
    7275:	41 55                	push   r13
    7277:	41 54                	push   r12
    7279:	53                   	push   rbx
    727a:	48 81 ec 58 05 00 00 	sub    rsp,0x558
    7281:	4c 89 c5             	mov    rbp,r8
    7284:	49 89 cf             	mov    r15,rcx
    7287:	48 89 d3             	mov    rbx,rdx
    728a:	49 89 f4             	mov    r12,rsi
    728d:	49 89 fe             	mov    r14,rdi
    7290:	49 8b 50 08          	mov    rdx,QWORD PTR [r8+0x8]
    7294:	48 8d bc 24 58 01 00 	lea    rdi,[rsp+0x158]
    729b:	00 
    729c:	e8 9f 1a 00 00       	call   8d40 <__cxa_finalize@plt+0x3a50>
    72a1:	48 8b 84 24 58 01 00 	mov    rax,QWORD PTR [rsp+0x158]
    72a8:	00 
    72a9:	0f 10 84 24 60 01 00 	movups xmm0,XMMWORD PTR [rsp+0x160]
    72b0:	00 
    72b1:	0f 29 84 24 50 03 00 	movaps XMMWORD PTR [rsp+0x350],xmm0
    72b8:	00 
    72b9:	0f 10 84 24 70 01 00 	movups xmm0,XMMWORD PTR [rsp+0x170]
    72c0:	00 
    72c1:	0f 29 84 24 60 03 00 	movaps XMMWORD PTR [rsp+0x360],xmm0
    72c8:	00 
    72c9:	0f 10 84 24 80 01 00 	movups xmm0,XMMWORD PTR [rsp+0x180]
    72d0:	00 
    72d1:	0f 29 84 24 70 03 00 	movaps XMMWORD PTR [rsp+0x370],xmm0
    72d8:	00 
    72d9:	48 83 f8 01          	cmp    rax,0x1
    72dd:	75 19                	jne    72f8 <__cxa_finalize@plt+0x2008>
    72df:	0f 28 84 24 50 03 00 	movaps xmm0,XMMWORD PTR [rsp+0x350]
    72e6:	00 
    72e7:	41 0f 11 46 08       	movups XMMWORD PTR [r14+0x8],xmm0
    72ec:	49 c7 06 01 00 00 00 	mov    QWORD PTR [r14],0x1
    72f3:	e9 00 0a 00 00       	jmp    7cf8 <__cxa_finalize@plt+0x2a08>
    72f8:	0f 28 84 24 50 03 00 	movaps xmm0,XMMWORD PTR [rsp+0x350]
    72ff:	00 
    7300:	0f 28 8c 24 60 03 00 	movaps xmm1,XMMWORD PTR [rsp+0x360]
    7307:	00 
    7308:	0f 28 94 24 70 03 00 	movaps xmm2,XMMWORD PTR [rsp+0x370]
    730f:	00 
    7310:	0f 29 94 24 40 05 00 	movaps XMMWORD PTR [rsp+0x540],xmm2
    7317:	00 
    7318:	0f 29 8c 24 30 05 00 	movaps XMMWORD PTR [rsp+0x530],xmm1
    731f:	00 
    7320:	0f 29 84 24 20 05 00 	movaps XMMWORD PTR [rsp+0x520],xmm0
    7327:	00 
    7328:	48 89 9c 24 58 01 00 	mov    QWORD PTR [rsp+0x158],rbx
    732f:	00 
    7330:	4c 89 bc 24 60 01 00 	mov    QWORD PTR [rsp+0x160],r15
    7337:	00 
    7338:	48 8d 84 24 68 01 00 	lea    rax,[rsp+0x168]
    733f:	00 
    7340:	0f 10 5d 00          	movups xmm3,XMMWORD PTR [rbp+0x0]
    7344:	0f 10 65 10          	movups xmm4,XMMWORD PTR [rbp+0x10]
    7348:	0f 11 9c 24 68 01 00 	movups XMMWORD PTR [rsp+0x168],xmm3
    734f:	00 
    7350:	0f 11 a4 24 78 01 00 	movups XMMWORD PTR [rsp+0x178],xmm4
    7357:	00 
    7358:	48 8b 4d 20          	mov    rcx,QWORD PTR [rbp+0x20]
    735c:	48 89 8c 24 88 01 00 	mov    QWORD PTR [rsp+0x188],rcx
    7363:	00 
    7364:	48 8d 8c 24 90 01 00 	lea    rcx,[rsp+0x190]
    736b:	00 
    736c:	0f 11 84 24 90 01 00 	movups XMMWORD PTR [rsp+0x190],xmm0
    7373:	00 
    7374:	0f 11 8c 24 a0 01 00 	movups XMMWORD PTR [rsp+0x1a0],xmm1
    737b:	00 
    737c:	0f 11 94 24 b0 01 00 	movups XMMWORD PTR [rsp+0x1b0],xmm2
    7383:	00 
    7384:	48 c7 84 24 c0 01 00 	mov    QWORD PTR [rsp+0x1c0],0x0
    738b:	00 00 00 00 00 
    7390:	48 c7 84 24 d0 01 00 	mov    QWORD PTR [rsp+0x1d0],0x0
    7397:	00 00 00 00 00 
    739c:	0f 57 c0             	xorps  xmm0,xmm0
    739f:	0f 11 84 24 e0 01 00 	movups XMMWORD PTR [rsp+0x1e0],xmm0
    73a6:	00 
    73a7:	0f 11 84 24 f0 01 00 	movups XMMWORD PTR [rsp+0x1f0],xmm0
    73ae:	00 
    73af:	48 c7 84 24 00 02 00 	mov    QWORD PTR [rsp+0x200],0x0
    73b6:	00 00 00 00 00 
    73bb:	48 c7 84 24 b0 02 00 	mov    QWORD PTR [rsp+0x2b0],0x2e
    73c2:	00 2e 00 00 00 
    73c7:	0f 10 84 24 78 01 00 	movups xmm0,XMMWORD PTR [rsp+0x178]
    73ce:	00 
    73cf:	0f 11 84 24 50 03 00 	movups XMMWORD PTR [rsp+0x350],xmm0
    73d6:	00 
    73d7:	48 89 84 24 60 03 00 	mov    QWORD PTR [rsp+0x360],rax
    73de:	00 
    73df:	48 89 8c 24 68 03 00 	mov    QWORD PTR [rsp+0x368],rcx
    73e6:	00 
    73e7:	48 c7 84 24 88 03 00 	mov    QWORD PTR [rsp+0x388],0x2
    73ee:	00 02 00 00 00 
    73f3:	48 c7 84 24 a8 03 00 	mov    QWORD PTR [rsp+0x3a8],0x0
    73fa:	00 00 00 00 00 
    73ff:	48 8d 7c 24 78       	lea    rdi,[rsp+0x78]
    7404:	48 8d b4 24 50 03 00 	lea    rsi,[rsp+0x350]
    740b:	00 
    740c:	e8 4f 58 01 00       	call   1cc60 <__cxa_finalize@plt+0x17970>
    7411:	48 8b 44 24 78       	mov    rax,QWORD PTR [rsp+0x78]
    7416:	0f 10 84 24 80 00 00 	movups xmm0,XMMWORD PTR [rsp+0x80]
    741d:	00 
    741e:	0f 29 84 24 70 04 00 	movaps XMMWORD PTR [rsp+0x470],xmm0
    7425:	00 
    7426:	48 83 f8 01          	cmp    rax,0x1
    742a:	75 0f                	jne    743b <__cxa_finalize@plt+0x214b>
    742c:	0f 28 84 24 70 04 00 	movaps xmm0,XMMWORD PTR [rsp+0x470]
    7433:	00 
    7434:	41 0f 11 46 08       	movups XMMWORD PTR [r14+0x8],xmm0
    7439:	eb 16                	jmp    7451 <__cxa_finalize@plt+0x2161>
    743b:	83 bc 24 88 03 00 00 	cmp    DWORD PTR [rsp+0x388],0x2
    7442:	02 
    7443:	0f 85 5d 01 00 00    	jne    75a6 <__cxa_finalize@plt+0x22b6>
    7449:	49 c7 46 08 41 00 00 	mov    QWORD PTR [r14+0x8],0x41
    7450:	00 
    7451:	49 c7 06 01 00 00 00 	mov    QWORD PTR [r14],0x1
    7458:	48 8b 84 24 a0 01 00 	mov    rax,QWORD PTR [rsp+0x1a0]
    745f:	00 
    7460:	48 85 c0             	test   rax,rax
    7463:	74 4b                	je     74b0 <__cxa_finalize@plt+0x21c0>
    7465:	48 8b 9c 24 90 01 00 	mov    rbx,QWORD PTR [rsp+0x190]
    746c:	00 
    746d:	4c 6b f8 70          	imul   r15,rax,0x70
    7471:	31 ed                	xor    ebp,ebp
    7473:	4c 8d 25 36 f9 ff ff 	lea    r12,[rip+0xfffffffffffff936]        # 6db0 <__cxa_finalize@plt+0x1ac0>
    747a:	eb 0d                	jmp    7489 <__cxa_finalize@plt+0x2199>
    747c:	0f 1f 40 00          	nop    DWORD PTR [rax+0x0]
    7480:	48 83 c5 70          	add    rbp,0x70
    7484:	49 39 ef             	cmp    r15,rbp
    7487:	74 27                	je     74b0 <__cxa_finalize@plt+0x21c0>
    7489:	48 83 7c 2b 08 00    	cmp    QWORD PTR [rbx+rbp*1+0x8],0x0
    748f:	74 ef                	je     7480 <__cxa_finalize@plt+0x2190>
    7491:	48 8b 74 2b 18       	mov    rsi,QWORD PTR [rbx+rbp*1+0x18]
    7496:	48 85 f6             	test   rsi,rsi
    7499:	74 e5                	je     7480 <__cxa_finalize@plt+0x2190>
    749b:	48 c1 e6 04          	shl    rsi,0x4
    749f:	74 df                	je     7480 <__cxa_finalize@plt+0x2190>
    74a1:	48 8b 7c 2b 10       	mov    rdi,QWORD PTR [rbx+rbp*1+0x10]
    74a6:	ba 08 00 00 00       	mov    edx,0x8
    74ab:	41 ff d4             	call   r12
    74ae:	eb d0                	jmp    7480 <__cxa_finalize@plt+0x2190>
    74b0:	48 8b 84 24 98 01 00 	mov    rax,QWORD PTR [rsp+0x198]
    74b7:	00 
    74b8:	48 85 c0             	test   rax,rax
    74bb:	74 1c                	je     74d9 <__cxa_finalize@plt+0x21e9>
    74bd:	48 6b f0 70          	imul   rsi,rax,0x70
    74c1:	48 85 f6             	test   rsi,rsi
    74c4:	74 13                	je     74d9 <__cxa_finalize@plt+0x21e9>
    74c6:	48 8b bc 24 90 01 00 	mov    rdi,QWORD PTR [rsp+0x190]
    74cd:	00 
    74ce:	ba 08 00 00 00       	mov    edx,0x8
    74d3:	ff 15 ef 36 24 00    	call   QWORD PTR [rip+0x2436ef]        # 24abc8 <__cxa_finalize@plt+0x2458d8>
    74d9:	48 8d bc 24 a8 01 00 	lea    rdi,[rsp+0x1a8]
    74e0:	00 
    74e1:	e8 ca a3 00 00       	call   118b0 <__cxa_finalize@plt+0xc5c0>
    74e6:	83 bc 24 b0 02 00 00 	cmp    DWORD PTR [rsp+0x2b0],0x2e
    74ed:	2e 
    74ee:	0f 84 04 08 00 00    	je     7cf8 <__cxa_finalize@plt+0x2a08>
    74f4:	48 8b b4 24 38 02 00 	mov    rsi,QWORD PTR [rsp+0x238]
    74fb:	00 
    74fc:	48 85 f6             	test   rsi,rsi
    74ff:	74 1c                	je     751d <__cxa_finalize@plt+0x222d>
    7501:	48 c1 e6 02          	shl    rsi,0x2
    7505:	48 85 f6             	test   rsi,rsi
    7508:	74 13                	je     751d <__cxa_finalize@plt+0x222d>
    750a:	48 8b bc 24 30 02 00 	mov    rdi,QWORD PTR [rsp+0x230]
    7511:	00 
    7512:	ba 02 00 00 00       	mov    edx,0x2
    7517:	ff 15 ab 36 24 00    	call   QWORD PTR [rip+0x2436ab]        # 24abc8 <__cxa_finalize@plt+0x2458d8>
    751d:	48 8b 84 24 50 02 00 	mov    rax,QWORD PTR [rsp+0x250]
    7524:	00 
    7525:	48 85 c0             	test   rax,rax
    7528:	74 20                	je     754a <__cxa_finalize@plt+0x225a>
    752a:	48 c1 e0 03          	shl    rax,0x3
    752e:	48 8d 34 40          	lea    rsi,[rax+rax*2]
    7532:	48 85 f6             	test   rsi,rsi
    7535:	74 13                	je     754a <__cxa_finalize@plt+0x225a>
    7537:	48 8b bc 24 48 02 00 	mov    rdi,QWORD PTR [rsp+0x248]
    753e:	00 
    753f:	ba 08 00 00 00       	mov    edx,0x8
    7544:	ff 15 7e 36 24 00    	call   QWORD PTR [rip+0x24367e]        # 24abc8 <__cxa_finalize@plt+0x2458d8>
    754a:	48 8b b4 24 68 02 00 	mov    rsi,QWORD PTR [rsp+0x268]
    7551:	00 
    7552:	48 85 f6             	test   rsi,rsi
    7555:	74 1c                	je     7573 <__cxa_finalize@plt+0x2283>
    7557:	48 c1 e6 02          	shl    rsi,0x2
    755b:	48 85 f6             	test   rsi,rsi
    755e:	74 13                	je     7573 <__cxa_finalize@plt+0x2283>
    7560:	48 8b bc 24 60 02 00 	mov    rdi,QWORD PTR [rsp+0x260]
    7567:	00 
    7568:	ba 02 00 00 00       	mov    edx,0x2
    756d:	ff 15 55 36 24 00    	call   QWORD PTR [rip+0x243655]        # 24abc8 <__cxa_finalize@plt+0x2458d8>
    7573:	48 8b b4 24 80 02 00 	mov    rsi,QWORD PTR [rsp+0x280]
    757a:	00 
    757b:	48 85 f6             	test   rsi,rsi
    757e:	0f 84 74 07 00 00    	je     7cf8 <__cxa_finalize@plt+0x2a08>
    7584:	48 c1 e6 06          	shl    rsi,0x6
    7588:	0f 84 6a 07 00 00    	je     7cf8 <__cxa_finalize@plt+0x2a08>
    758e:	48 8b bc 24 78 02 00 	mov    rdi,QWORD PTR [rsp+0x278]
    7595:	00 
    7596:	ba 08 00 00 00       	mov    edx,0x8
    759b:	ff 15 27 36 24 00    	call   QWORD PTR [rip+0x243627]        # 24abc8 <__cxa_finalize@plt+0x2458d8>
    75a1:	e9 52 07 00 00       	jmp    7cf8 <__cxa_finalize@plt+0x2a08>
    75a6:	48 8b 9c 24 78 03 00 	mov    rbx,QWORD PTR [rsp+0x378]
    75ad:	00 
    75ae:	48 8b ac 24 80 03 00 	mov    rbp,QWORD PTR [rsp+0x380]
    75b5:	00 
    75b6:	48 8b bc 24 98 03 00 	mov    rdi,QWORD PTR [rsp+0x398]
    75bd:	00 
    75be:	48 83 c7 08          	add    rdi,0x8
    75c2:	ff 15 70 37 24 00    	call   QWORD PTR [rip+0x243770]        # 24ad38 <__cxa_finalize@plt+0x245a48>
    75c8:	49 89 c5             	mov    r13,rax
    75cb:	49 89 d7             	mov    r15,rdx
    75ce:	48 8d 84 24 70 03 00 	lea    rax,[rsp+0x370]
    75d5:	00 
    75d6:	48 89 9c 24 70 04 00 	mov    QWORD PTR [rsp+0x470],rbx
    75dd:	00 
    75de:	48 89 ac 24 78 04 00 	mov    QWORD PTR [rsp+0x478],rbp
    75e5:	00 
    75e6:	4c 89 ac 24 80 04 00 	mov    QWORD PTR [rsp+0x480],r13
    75ed:	00 
    75ee:	48 89 94 24 88 04 00 	mov    QWORD PTR [rsp+0x488],rdx
    75f5:	00 
    75f6:	48 89 84 24 90 04 00 	mov    QWORD PTR [rsp+0x490],rax
    75fd:	00 
    75fe:	48 85 d2             	test   rdx,rdx
    7601:	0f 84 df 02 00 00    	je     78e6 <__cxa_finalize@plt+0x25f6>
    7607:	bb 2d 00 00 00       	mov    ebx,0x2d
    760c:	31 c9                	xor    ecx,ecx
    760e:	48 89 4c 24 18       	mov    QWORD PTR [rsp+0x18],rcx
    7613:	bd 2d 00 00 00       	mov    ebp,0x2d
    7618:	0f 1f 84 00 00 00 00 	nop    DWORD PTR [rax+rax*1+0x0]
    761f:	00 
    7620:	41 0f 10 45 00       	movups xmm0,XMMWORD PTR [r13+0x0]
    7625:	0f 29 84 24 00 03 00 	movaps XMMWORD PTR [rsp+0x300],xmm0
    762c:	00 
    762d:	48 8b 40 30          	mov    rax,QWORD PTR [rax+0x30]
    7631:	8b 50 20             	mov    edx,DWORD PTR [rax+0x20]
    7634:	0f 29 44 24 20       	movaps XMMWORD PTR [rsp+0x20],xmm0
    7639:	48 8d 7c 24 78       	lea    rdi,[rsp+0x78]
    763e:	48 8d b4 24 70 04 00 	lea    rsi,[rsp+0x470]
    7645:	00 
    7646:	48 8d 4c 24 20       	lea    rcx,[rsp+0x20]
    764b:	e8 d0 3b 01 00       	call   1b220 <__cxa_finalize@plt+0x15f30>
    7650:	83 7c 24 78 01       	cmp    DWORD PTR [rsp+0x78],0x1
    7655:	75 39                	jne    7690 <__cxa_finalize@plt+0x23a0>
    7657:	48 8d 05 e2 28 03 00 	lea    rax,[rip+0x328e2]        # 39f40 <__cxa_finalize@plt+0x34c50>
    765e:	48 89 84 24 70 04 00 	mov    QWORD PTR [rsp+0x470],rax
    7665:	00 
    7666:	48 c7 84 24 78 04 00 	mov    QWORD PTR [rsp+0x478],0x0
    766d:	00 00 00 00 00 
    7672:	48 8b 84 24 80 00 00 	mov    rax,QWORD PTR [rsp+0x80]
    7679:	00 
    767a:	48 8b 8c 24 88 00 00 	mov    rcx,QWORD PTR [rsp+0x88]
    7681:	00 
    7682:	b2 01                	mov    dl,0x1
    7684:	eb 47                	jmp    76cd <__cxa_finalize@plt+0x23dd>
    7686:	66 2e 0f 1f 84 00 00 	cs nop WORD PTR [rax+rax*1+0x0]
    768d:	00 00 00 
    7690:	49 83 c5 10          	add    r13,0x10
    7694:	49 83 c7 ff          	add    r15,0xffffffffffffffff
    7698:	4c 89 ac 24 80 04 00 	mov    QWORD PTR [rsp+0x480],r13
    769f:	00 
    76a0:	4c 89 bc 24 88 04 00 	mov    QWORD PTR [rsp+0x488],r15
    76a7:	00 
    76a8:	48 8b 84 24 80 00 00 	mov    rax,QWORD PTR [rsp+0x80]
    76af:	00 
    76b0:	48 8b 8c 24 88 00 00 	mov    rcx,QWORD PTR [rsp+0x88]
    76b7:	00 
    76b8:	48 8d 94 24 90 00 00 	lea    rdx,[rsp+0x90]
    76bf:	00 
    76c0:	0f 10 02             	movups xmm0,XMMWORD PTR [rdx]
    76c3:	0f 29 84 24 40 01 00 	movaps XMMWORD PTR [rsp+0x140],xmm0
    76ca:	00 
    76cb:	31 d2                	xor    edx,edx
    76cd:	0f 28 84 24 40 01 00 	movaps xmm0,XMMWORD PTR [rsp+0x140]
    76d4:	00 
    76d5:	0f 29 84 24 30 01 00 	movaps XMMWORD PTR [rsp+0x130],xmm0
    76dc:	00 
    76dd:	84 d2                	test   dl,dl
    76df:	0f 85 6c 02 00 00    	jne    7951 <__cxa_finalize@plt+0x2661>
    76e5:	0f 28 84 24 30 01 00 	movaps xmm0,XMMWORD PTR [rsp+0x130]
    76ec:	00 
    76ed:	0f 29 84 24 20 01 00 	movaps XMMWORD PTR [rsp+0x120],xmm0
    76f4:	00 
    76f5:	48 83 f8 2d          	cmp    rax,0x2d
    76f9:	0f 84 5f 02 00 00    	je     795e <__cxa_finalize@plt+0x266e>
    76ff:	48 89 44 24 78       	mov    QWORD PTR [rsp+0x78],rax
    7704:	48 89 8c 24 80 00 00 	mov    QWORD PTR [rsp+0x80],rcx
    770b:	00 
    770c:	0f 28 84 24 20 01 00 	movaps xmm0,XMMWORD PTR [rsp+0x120]
    7713:	00 
    7714:	48 8d 84 24 90 00 00 	lea    rax,[rsp+0x90]
    771b:	00 
    771c:	0f 11 40 f8          	movups XMMWORD PTR [rax-0x8],xmm0
    7720:	8b 84 24 90 00 00 00 	mov    eax,DWORD PTR [rsp+0x90]
    7727:	8d 48 fd             	lea    ecx,[rax-0x3]
    772a:	66 83 f9 18          	cmp    cx,0x18
    772e:	76 50                	jbe    7780 <__cxa_finalize@plt+0x2490>
    7730:	83 c0 8e             	add    eax,0xffffff8e
    7733:	66 83 f8 1a          	cmp    ax,0x1a
    7737:	0f 87 83 01 00 00    	ja     78c0 <__cxa_finalize@plt+0x25d0>
    773d:	0f b7 c0             	movzx  eax,ax
    7740:	48 8d 0d f9 26 03 00 	lea    rcx,[rip+0x326f9]        # 39e40 <__cxa_finalize@plt+0x34b50>
    7747:	48 63 04 81          	movsxd rax,DWORD PTR [rcx+rax*4]
    774b:	48 01 c8             	add    rax,rcx
    774e:	ff e0                	jmp    rax
    7750:	48 8d 7c 24 20       	lea    rdi,[rsp+0x20]
    7755:	48 8d 74 24 78       	lea    rsi,[rsp+0x78]
    775a:	e8 91 4a 01 00       	call   1c1f0 <__cxa_finalize@plt+0x16f00>
    775f:	83 7c 24 20 1c       	cmp    DWORD PTR [rsp+0x20],0x1c
    7764:	0f 85 56 01 00 00    	jne    78c0 <__cxa_finalize@plt+0x25d0>
    776a:	48 8b 44 24 28       	mov    rax,QWORD PTR [rsp+0x28]
    776f:	48 89 84 24 e8 01 00 	mov    QWORD PTR [rsp+0x1e8],rax
    7776:	00 
    7777:	e9 44 01 00 00       	jmp    78c0 <__cxa_finalize@plt+0x25d0>
    777c:	0f 1f 40 00          	nop    DWORD PTR [rax+0x0]
    7780:	0f b7 c1             	movzx  eax,cx
    7783:	48 8d 0d 52 26 03 00 	lea    rcx,[rip+0x32652]        # 39ddc <__cxa_finalize@plt+0x34aec>
    778a:	48 63 04 81          	movsxd rax,DWORD PTR [rcx+rax*4]
    778e:	48 01 c8             	add    rax,rcx
    7791:	ff e0                	jmp    rax
    7793:	48 8d 7c 24 20       	lea    rdi,[rsp+0x20]
    7798:	48 8d 74 24 78       	lea    rsi,[rsp+0x78]
    779d:	e8 4e 4a 01 00       	call   1c1f0 <__cxa_finalize@plt+0x16f00>
    77a2:	48 8b 5c 24 20       	mov    rbx,QWORD PTR [rsp+0x20]
    77a7:	48 8d 44 24 28       	lea    rax,[rsp+0x28]
    77ac:	0f 10 00             	movups xmm0,XMMWORD PTR [rax]
    77af:	0f 29 84 24 50 04 00 	movaps XMMWORD PTR [rsp+0x450],xmm0
    77b6:	00 
    77b7:	e9 04 01 00 00       	jmp    78c0 <__cxa_finalize@plt+0x25d0>
    77bc:	48 8d 7c 24 20       	lea    rdi,[rsp+0x20]
    77c1:	48 8d 74 24 78       	lea    rsi,[rsp+0x78]
    77c6:	e8 25 4a 01 00       	call   1c1f0 <__cxa_finalize@plt+0x16f00>
    77cb:	48 8b 6c 24 20       	mov    rbp,QWORD PTR [rsp+0x20]
    77d0:	48 8d 44 24 28       	lea    rax,[rsp+0x28]
    77d5:	0f 10 00             	movups xmm0,XMMWORD PTR [rax]
    77d8:	0f 29 84 24 60 04 00 	movaps XMMWORD PTR [rsp+0x460],xmm0
    77df:	00 
    77e0:	e9 db 00 00 00       	jmp    78c0 <__cxa_finalize@plt+0x25d0>
    77e5:	48 8d 7c 24 20       	lea    rdi,[rsp+0x20]
    77ea:	48 8d 74 24 78       	lea    rsi,[rsp+0x78]
    77ef:	e8 fc 49 01 00       	call   1c1f0 <__cxa_finalize@plt+0x16f00>
    77f4:	48 83 7c 24 20 00    	cmp    QWORD PTR [rsp+0x20],0x0
    77fa:	0f 85 c0 00 00 00    	jne    78c0 <__cxa_finalize@plt+0x25d0>
    7800:	48 8b 44 24 28       	mov    rax,QWORD PTR [rsp+0x28]
    7805:	48 89 84 24 e0 01 00 	mov    QWORD PTR [rsp+0x1e0],rax
    780c:	00 
    780d:	e9 ae 00 00 00       	jmp    78c0 <__cxa_finalize@plt+0x25d0>
    7812:	48 8d 7c 24 20       	lea    rdi,[rsp+0x20]
    7817:	48 8d 74 24 78       	lea    rsi,[rsp+0x78]
    781c:	e8 cf 49 01 00       	call   1c1f0 <__cxa_finalize@plt+0x16f00>
    7821:	48 8b 44 24 20       	mov    rax,QWORD PTR [rsp+0x20]
    7826:	83 f8 10             	cmp    eax,0x10
    7829:	75 0a                	jne    7835 <__cxa_finalize@plt+0x2545>
    782b:	48 8b 4c 24 28       	mov    rcx,QWORD PTR [rsp+0x28]
    7830:	48 89 4c 24 70       	mov    QWORD PTR [rsp+0x70],rcx
    7835:	48 83 f8 10          	cmp    rax,0x10
    7839:	48 8b 44 24 18       	mov    rax,QWORD PTR [rsp+0x18]
    783e:	b9 01 00 00 00       	mov    ecx,0x1
    7843:	48 0f 44 c1          	cmove  rax,rcx
    7847:	48 89 44 24 18       	mov    QWORD PTR [rsp+0x18],rax
    784c:	eb 72                	jmp    78c0 <__cxa_finalize@plt+0x25d0>
    784e:	48 8d 7c 24 20       	lea    rdi,[rsp+0x20]
    7853:	48 8d 74 24 78       	lea    rsi,[rsp+0x78]
    7858:	e8 93 49 01 00       	call   1c1f0 <__cxa_finalize@plt+0x16f00>
    785d:	83 7c 24 20 12       	cmp    DWORD PTR [rsp+0x20],0x12
    7862:	75 5c                	jne    78c0 <__cxa_finalize@plt+0x25d0>
    7864:	48 8b 44 24 28       	mov    rax,QWORD PTR [rsp+0x28]
    7869:	48 89 84 24 f8 01 00 	mov    QWORD PTR [rsp+0x1f8],rax
    7870:	00 
    7871:	eb 4d                	jmp    78c0 <__cxa_finalize@plt+0x25d0>
    7873:	48 8d 7c 24 20       	lea    rdi,[rsp+0x20]
    7878:	48 8d 74 24 78       	lea    rsi,[rsp+0x78]
    787d:	e8 6e 49 01 00       	call   1c1f0 <__cxa_finalize@plt+0x16f00>
    7882:	83 7c 24 20 17       	cmp    DWORD PTR [rsp+0x20],0x17
    7887:	75 37                	jne    78c0 <__cxa_finalize@plt+0x25d0>
    7889:	48 8b 44 24 28       	mov    rax,QWORD PTR [rsp+0x28]
    788e:	48 89 84 24 00 02 00 	mov    QWORD PTR [rsp+0x200],rax
    7895:	00 
    7896:	eb 28                	jmp    78c0 <__cxa_finalize@plt+0x25d0>
    7898:	48 8d 7c 24 20       	lea    rdi,[rsp+0x20]
    789d:	48 8d 74 24 78       	lea    rsi,[rsp+0x78]
    78a2:	e8 49 49 01 00       	call   1c1f0 <__cxa_finalize@plt+0x16f00>
    78a7:	83 7c 24 20 0b       	cmp    DWORD PTR [rsp+0x20],0xb
    78ac:	75 12                	jne    78c0 <__cxa_finalize@plt+0x25d0>
    78ae:	48 8b 44 24 28       	mov    rax,QWORD PTR [rsp+0x28]
    78b3:	48 89 84 24 f0 01 00 	mov    QWORD PTR [rsp+0x1f0],rax
    78ba:	00 
    78bb:	0f 1f 44 00 00       	nop    DWORD PTR [rax+rax*1+0x0]
    78c0:	4c 8b bc 24 88 04 00 	mov    r15,QWORD PTR [rsp+0x488]
    78c7:	00 
    78c8:	4d 85 ff             	test   r15,r15
    78cb:	0f 84 71 01 00 00    	je     7a42 <__cxa_finalize@plt+0x2752>
    78d1:	4c 8b ac 24 80 04 00 	mov    r13,QWORD PTR [rsp+0x480]
    78d8:	00 
    78d9:	48 8b 84 24 90 04 00 	mov    rax,QWORD PTR [rsp+0x490]
    78e0:	00 
    78e1:	e9 3a fd ff ff       	jmp    7620 <__cxa_finalize@plt+0x2330>
    78e6:	45 31 ed             	xor    r13d,r13d
    78e9:	bd 2d 00 00 00       	mov    ebp,0x2d
    78ee:	bb 2d 00 00 00       	mov    ebx,0x2d
    78f3:	48 83 78 18 01       	cmp    QWORD PTR [rax+0x18],0x1
    78f8:	74 18                	je     7912 <__cxa_finalize@plt+0x2622>
    78fa:	48 8b 8c 24 70 04 00 	mov    rcx,QWORD PTR [rsp+0x470]
    7901:	00 
    7902:	48 2b 48 08          	sub    rcx,QWORD PTR [rax+0x8]
    7906:	48 c7 40 18 01 00 00 	mov    QWORD PTR [rax+0x18],0x1
    790d:	00 
    790e:	48 89 48 20          	mov    QWORD PTR [rax+0x20],rcx
    7912:	0f 28 84 24 40 01 00 	movaps xmm0,XMMWORD PTR [rsp+0x140]
    7919:	00 
    791a:	0f 29 84 24 30 01 00 	movaps XMMWORD PTR [rsp+0x130],xmm0
    7921:	00 
    7922:	0f 29 84 24 20 01 00 	movaps XMMWORD PTR [rsp+0x120],xmm0
    7929:	00 
    792a:	48 83 fb 2d          	cmp    rbx,0x2d
    792e:	75 3e                	jne    796e <__cxa_finalize@plt+0x267e>
    7930:	31 c9                	xor    ecx,ecx
    7932:	48 89 8c 24 c0 01 00 	mov    QWORD PTR [rsp+0x1c0],rcx
    7939:	00 
    793a:	48 89 84 24 c8 01 00 	mov    QWORD PTR [rsp+0x1c8],rax
    7941:	00 
    7942:	48 83 fd 2d          	cmp    rbp,0x2d
    7946:	0f 85 8c 00 00 00    	jne    79d8 <__cxa_finalize@plt+0x26e8>
    794c:	e9 2f 01 00 00       	jmp    7a80 <__cxa_finalize@plt+0x2790>
    7951:	49 89 46 08          	mov    QWORD PTR [r14+0x8],rax
    7955:	49 89 4e 10          	mov    QWORD PTR [r14+0x10],rcx
    7959:	e9 f3 fa ff ff       	jmp    7451 <__cxa_finalize@plt+0x2161>
    795e:	4c 8b 6c 24 18       	mov    r13,QWORD PTR [rsp+0x18]
    7963:	4c 8b 7c 24 70       	mov    r15,QWORD PTR [rsp+0x70]
    7968:	48 83 fb 2d          	cmp    rbx,0x2d
    796c:	74 c2                	je     7930 <__cxa_finalize@plt+0x2640>
    796e:	48 89 9c 24 50 03 00 	mov    QWORD PTR [rsp+0x350],rbx
    7975:	00 
    7976:	0f 28 84 24 50 04 00 	movaps xmm0,XMMWORD PTR [rsp+0x450]
    797d:	00 
    797e:	0f 11 84 24 58 03 00 	movups XMMWORD PTR [rsp+0x358],xmm0
    7985:	00 
    7986:	48 8d 7c 24 78       	lea    rdi,[rsp+0x78]
    798b:	48 8d 94 24 58 01 00 	lea    rdx,[rsp+0x158]
    7992:	00 
    7993:	48 8d 8c 24 50 03 00 	lea    rcx,[rsp+0x350]
    799a:	00 
    799b:	4c 89 e6             	mov    rsi,r12
    799e:	e8 bd 03 00 00       	call   7d60 <__cxa_finalize@plt+0x2a70>
    79a3:	83 7c 24 78 01       	cmp    DWORD PTR [rsp+0x78],0x1
    79a8:	48 8b 84 24 88 00 00 	mov    rax,QWORD PTR [rsp+0x88]
    79af:	00 
    79b0:	0f 84 ae 00 00 00    	je     7a64 <__cxa_finalize@plt+0x2774>
    79b6:	48 8b 8c 24 80 00 00 	mov    rcx,QWORD PTR [rsp+0x80]
    79bd:	00 
    79be:	48 89 8c 24 c0 01 00 	mov    QWORD PTR [rsp+0x1c0],rcx
    79c5:	00 
    79c6:	48 89 84 24 c8 01 00 	mov    QWORD PTR [rsp+0x1c8],rax
    79cd:	00 
    79ce:	48 83 fd 2d          	cmp    rbp,0x2d
    79d2:	0f 84 a8 00 00 00    	je     7a80 <__cxa_finalize@plt+0x2790>
    79d8:	48 89 ac 24 50 03 00 	mov    QWORD PTR [rsp+0x350],rbp
    79df:	00 
    79e0:	0f 28 84 24 60 04 00 	movaps xmm0,XMMWORD PTR [rsp+0x460]
    79e7:	00 
    79e8:	0f 11 84 24 58 03 00 	movups XMMWORD PTR [rsp+0x358],xmm0
    79ef:	00 
    79f0:	48 8d 7c 24 78       	lea    rdi,[rsp+0x78]
    79f5:	48 8d 94 24 58 01 00 	lea    rdx,[rsp+0x158]
    79fc:	00 
    79fd:	48 8d 8c 24 50 03 00 	lea    rcx,[rsp+0x350]
    7a04:	00 
    7a05:	4c 89 e6             	mov    rsi,r12
    7a08:	e8 53 03 00 00       	call   7d60 <__cxa_finalize@plt+0x2a70>
    7a0d:	83 7c 24 78 01       	cmp    DWORD PTR [rsp+0x78],0x1
    7a12:	4c 8b 8c 24 88 00 00 	mov    r9,QWORD PTR [rsp+0x88]
    7a19:	00 
    7a1a:	0f 84 7f 01 00 00    	je     7b9f <__cxa_finalize@plt+0x28af>
    7a20:	4c 8b 84 24 80 00 00 	mov    r8,QWORD PTR [rsp+0x80]
    7a27:	00 
    7a28:	4c 89 84 24 d0 01 00 	mov    QWORD PTR [rsp+0x1d0],r8
    7a2f:	00 
    7a30:	4c 89 8c 24 d8 01 00 	mov    QWORD PTR [rsp+0x1d8],r9
    7a37:	00 
    7a38:	4d 85 ed             	test   r13,r13
    7a3b:	75 5f                	jne    7a9c <__cxa_finalize@plt+0x27ac>
    7a3d:	e9 79 01 00 00       	jmp    7bbb <__cxa_finalize@plt+0x28cb>
    7a42:	48 8b 84 24 90 04 00 	mov    rax,QWORD PTR [rsp+0x490]
    7a49:	00 
    7a4a:	4c 8b 6c 24 18       	mov    r13,QWORD PTR [rsp+0x18]
    7a4f:	4c 8b 7c 24 70       	mov    r15,QWORD PTR [rsp+0x70]
    7a54:	48 83 78 18 01       	cmp    QWORD PTR [rax+0x18],0x1
    7a59:	0f 85 9b fe ff ff    	jne    78fa <__cxa_finalize@plt+0x260a>
    7a5f:	e9 ae fe ff ff       	jmp    7912 <__cxa_finalize@plt+0x2622>
    7a64:	31 c9                	xor    ecx,ecx
    7a66:	48 89 8c 24 c0 01 00 	mov    QWORD PTR [rsp+0x1c0],rcx
    7a6d:	00 
    7a6e:	48 89 84 24 c8 01 00 	mov    QWORD PTR [rsp+0x1c8],rax
    7a75:	00 
    7a76:	48 83 fd 2d          	cmp    rbp,0x2d
    7a7a:	0f 85 58 ff ff ff    	jne    79d8 <__cxa_finalize@plt+0x26e8>
    7a80:	45 31 c0             	xor    r8d,r8d
    7a83:	4c 89 84 24 d0 01 00 	mov    QWORD PTR [rsp+0x1d0],r8
    7a8a:	00 
    7a8b:	4c 89 8c 24 d8 01 00 	mov    QWORD PTR [rsp+0x1d8],r9
    7a92:	00 
    7a93:	4d 85 ed             	test   r13,r13
    7a96:	0f 84 1f 01 00 00    	je     7bbb <__cxa_finalize@plt+0x28cb>
    7a9c:	49 83 c4 30          	add    r12,0x30
    7aa0:	0f 10 84 24 c0 01 00 	movups xmm0,XMMWORD PTR [rsp+0x1c0]
    7aa7:	00 
    7aa8:	8b 8c 24 88 01 00 00 	mov    ecx,DWORD PTR [rsp+0x188]
    7aaf:	0f 11 04 24          	movups XMMWORD PTR [rsp],xmm0
    7ab3:	48 8d bc 24 50 03 00 	lea    rdi,[rsp+0x350]
    7aba:	00 
    7abb:	4c 89 e6             	mov    rsi,r12
    7abe:	4c 89 fa             	mov    rdx,r15
    7ac1:	e8 da f7 00 00       	call   172a0 <__cxa_finalize@plt+0x11fb0>
    7ac6:	48 8b ac 24 50 03 00 	mov    rbp,QWORD PTR [rsp+0x350]
    7acd:	00 
    7ace:	48 8d b4 24 58 03 00 	lea    rsi,[rsp+0x358]
    7ad5:	00 
    7ad6:	48 8d 7c 24 78       	lea    rdi,[rsp+0x78]
    7adb:	ba a8 00 00 00       	mov    edx,0xa8
    7ae0:	ff 15 ba 34 24 00    	call   QWORD PTR [rip+0x2434ba]        # 24afa0 <__cxa_finalize@plt+0x245cb0>
    7ae6:	4c 8b bc 24 00 04 00 	mov    r15,QWORD PTR [rsp+0x400]
    7aed:	00 
    7aee:	0f 10 84 24 08 04 00 	movups xmm0,XMMWORD PTR [rsp+0x408]
    7af5:	00 
    7af6:	0f 29 44 24 20       	movaps XMMWORD PTR [rsp+0x20],xmm0
    7afb:	0f 10 84 24 18 04 00 	movups xmm0,XMMWORD PTR [rsp+0x418]
    7b02:	00 
    7b03:	0f 29 44 24 30       	movaps XMMWORD PTR [rsp+0x30],xmm0
    7b08:	0f 10 84 24 28 04 00 	movups xmm0,XMMWORD PTR [rsp+0x428]
    7b0f:	00 
    7b10:	0f 29 44 24 40       	movaps XMMWORD PTR [rsp+0x40],xmm0
    7b15:	0f 10 84 24 38 04 00 	movups xmm0,XMMWORD PTR [rsp+0x438]
    7b1c:	00 
    7b1d:	0f 29 44 24 50       	movaps XMMWORD PTR [rsp+0x50],xmm0
    7b22:	48 8b 84 24 48 04 00 	mov    rax,QWORD PTR [rsp+0x448]
    7b29:	00 
    7b2a:	48 89 44 24 60       	mov    QWORD PTR [rsp+0x60],rax
    7b2f:	48 83 fd 01          	cmp    rbp,0x1
    7b33:	75 0f                	jne    7b44 <__cxa_finalize@plt+0x2854>
    7b35:	0f 10 44 24 78       	movups xmm0,XMMWORD PTR [rsp+0x78]
    7b3a:	41 0f 11 46 08       	movups XMMWORD PTR [r14+0x8],xmm0
    7b3f:	e9 0d f9 ff ff       	jmp    7451 <__cxa_finalize@plt+0x2161>
    7b44:	48 8d bc 24 70 04 00 	lea    rdi,[rsp+0x470]
    7b4b:	00 
    7b4c:	48 8d 74 24 78       	lea    rsi,[rsp+0x78]
    7b51:	ba a8 00 00 00       	mov    edx,0xa8
    7b56:	ff 15 44 34 24 00    	call   QWORD PTR [rip+0x243444]        # 24afa0 <__cxa_finalize@plt+0x245cb0>
    7b5c:	0f 28 44 24 20       	movaps xmm0,XMMWORD PTR [rsp+0x20]
    7b61:	0f 28 4c 24 30       	movaps xmm1,XMMWORD PTR [rsp+0x30]
    7b66:	0f 28 54 24 40       	movaps xmm2,XMMWORD PTR [rsp+0x40]
    7b6b:	0f 28 5c 24 50       	movaps xmm3,XMMWORD PTR [rsp+0x50]
    7b70:	0f 29 84 24 00 03 00 	movaps XMMWORD PTR [rsp+0x300],xmm0
    7b77:	00 
    7b78:	0f 29 8c 24 10 03 00 	movaps XMMWORD PTR [rsp+0x310],xmm1
    7b7f:	00 
    7b80:	0f 29 94 24 20 03 00 	movaps XMMWORD PTR [rsp+0x320],xmm2
    7b87:	00 
    7b88:	0f 29 9c 24 30 03 00 	movaps XMMWORD PTR [rsp+0x330],xmm3
    7b8f:	00 
    7b90:	48 8b 44 24 60       	mov    rax,QWORD PTR [rsp+0x60]
    7b95:	48 89 84 24 40 03 00 	mov    QWORD PTR [rsp+0x340],rax
    7b9c:	00 
    7b9d:	eb 22                	jmp    7bc1 <__cxa_finalize@plt+0x28d1>
    7b9f:	45 31 c0             	xor    r8d,r8d
    7ba2:	4c 89 84 24 d0 01 00 	mov    QWORD PTR [rsp+0x1d0],r8
    7ba9:	00 
    7baa:	4c 89 8c 24 d8 01 00 	mov    QWORD PTR [rsp+0x1d8],r9
    7bb1:	00 
    7bb2:	4d 85 ed             	test   r13,r13
    7bb5:	0f 85 e1 fe ff ff    	jne    7a9c <__cxa_finalize@plt+0x27ac>
    7bbb:	41 bf 2e 00 00 00    	mov    r15d,0x2e
    7bc1:	48 8d ac 24 b8 02 00 	lea    rbp,[rsp+0x2b8]
    7bc8:	00 
    7bc9:	83 bc 24 b0 02 00 00 	cmp    DWORD PTR [rsp+0x2b0],0x2e
    7bd0:	2e 
    7bd1:	0f 84 a5 00 00 00    	je     7c7c <__cxa_finalize@plt+0x298c>
    7bd7:	48 8b b4 24 38 02 00 	mov    rsi,QWORD PTR [rsp+0x238]
    7bde:	00 
    7bdf:	48 85 f6             	test   rsi,rsi
    7be2:	74 1c                	je     7c00 <__cxa_finalize@plt+0x2910>
    7be4:	48 c1 e6 02          	shl    rsi,0x2
    7be8:	48 85 f6             	test   rsi,rsi
    7beb:	74 13                	je     7c00 <__cxa_finalize@plt+0x2910>
    7bed:	48 8b bc 24 30 02 00 	mov    rdi,QWORD PTR [rsp+0x230]
    7bf4:	00 
    7bf5:	ba 02 00 00 00       	mov    edx,0x2
    7bfa:	ff 15 c8 2f 24 00    	call   QWORD PTR [rip+0x242fc8]        # 24abc8 <__cxa_finalize@plt+0x2458d8>
    7c00:	48 8b 84 24 50 02 00 	mov    rax,QWORD PTR [rsp+0x250]
    7c07:	00 
    7c08:	48 85 c0             	test   rax,rax
    7c0b:	74 20                	je     7c2d <__cxa_finalize@plt+0x293d>
    7c0d:	48 c1 e0 03          	shl    rax,0x3
    7c11:	48 8d 34 40          	lea    rsi,[rax+rax*2]
    7c15:	48 85 f6             	test   rsi,rsi
    7c18:	74 13                	je     7c2d <__cxa_finalize@plt+0x293d>
    7c1a:	48 8b bc 24 48 02 00 	mov    rdi,QWORD PTR [rsp+0x248]
    7c21:	00 
    7c22:	ba 08 00 00 00       	mov    edx,0x8
    7c27:	ff 15 9b 2f 24 00    	call   QWORD PTR [rip+0x242f9b]        # 24abc8 <__cxa_finalize@plt+0x2458d8>
    7c2d:	48 8b b4 24 68 02 00 	mov    rsi,QWORD PTR [rsp+0x268]
    7c34:	00 
    7c35:	48 85 f6             	test   rsi,rsi
    7c38:	74 1c                	je     7c56 <__cxa_finalize@plt+0x2966>
    7c3a:	48 c1 e6 02          	shl    rsi,0x2
    7c3e:	48 85 f6             	test   rsi,rsi
    7c41:	74 13                	je     7c56 <__cxa_finalize@plt+0x2966>
    7c43:	48 8b bc 24 60 02 00 	mov    rdi,QWORD PTR [rsp+0x260]
    7c4a:	00 
    7c4b:	ba 02 00 00 00       	mov    edx,0x2
    7c50:	ff 15 72 2f 24 00    	call   QWORD PTR [rip+0x242f72]        # 24abc8 <__cxa_finalize@plt+0x2458d8>
    7c56:	48 8b b4 24 80 02 00 	mov    rsi,QWORD PTR [rsp+0x280]
    7c5d:	00 
    7c5e:	48 85 f6             	test   rsi,rsi
    7c61:	74 19                	je     7c7c <__cxa_finalize@plt+0x298c>
    7c63:	48 c1 e6 06          	shl    rsi,0x6
    7c67:	74 13                	je     7c7c <__cxa_finalize@plt+0x298c>
    7c69:	48 8b bc 24 78 02 00 	mov    rdi,QWORD PTR [rsp+0x278]
    7c70:	00 
    7c71:	ba 08 00 00 00       	mov    edx,0x8
    7c76:	ff 15 4c 2f 24 00    	call   QWORD PTR [rip+0x242f4c]        # 24abc8 <__cxa_finalize@plt+0x2458d8>
    7c7c:	48 8d b4 24 70 04 00 	lea    rsi,[rsp+0x470]
    7c83:	00 
    7c84:	48 8b 1d 15 33 24 00 	mov    rbx,QWORD PTR [rip+0x243315]        # 24afa0 <__cxa_finalize@plt+0x245cb0>
    7c8b:	ba a8 00 00 00       	mov    edx,0xa8
    7c90:	48 8d bc 24 08 02 00 	lea    rdi,[rsp+0x208]
    7c97:	00 
    7c98:	ff d3                	call   rbx
    7c9a:	4c 89 bc 24 b0 02 00 	mov    QWORD PTR [rsp+0x2b0],r15
    7ca1:	00 
    7ca2:	0f 28 84 24 00 03 00 	movaps xmm0,XMMWORD PTR [rsp+0x300]
    7ca9:	00 
    7caa:	0f 28 8c 24 10 03 00 	movaps xmm1,XMMWORD PTR [rsp+0x310]
    7cb1:	00 
    7cb2:	0f 28 94 24 20 03 00 	movaps xmm2,XMMWORD PTR [rsp+0x320]
    7cb9:	00 
    7cba:	0f 28 9c 24 30 03 00 	movaps xmm3,XMMWORD PTR [rsp+0x330]
    7cc1:	00 
    7cc2:	0f 11 45 00          	movups XMMWORD PTR [rbp+0x0],xmm0
    7cc6:	0f 11 4d 10          	movups XMMWORD PTR [rbp+0x10],xmm1
    7cca:	0f 11 55 20          	movups XMMWORD PTR [rbp+0x20],xmm2
    7cce:	0f 11 5d 30          	movups XMMWORD PTR [rbp+0x30],xmm3
    7cd2:	48 8b 84 24 40 03 00 	mov    rax,QWORD PTR [rsp+0x340]
    7cd9:	00 
    7cda:	48 89 45 40          	mov    QWORD PTR [rbp+0x40],rax
    7cde:	49 8d 7e 08          	lea    rdi,[r14+0x8]
    7ce2:	48 8d b4 24 58 01 00 	lea    rsi,[rsp+0x158]
    7ce9:	00 
    7cea:	ba a8 01 00 00       	mov    edx,0x1a8
    7cef:	ff d3                	call   rbx
    7cf1:	49 c7 06 00 00 00 00 	mov    QWORD PTR [r14],0x0
    7cf8:	4c 89 f0             	mov    rax,r14
    7cfb:	48 81 c4 58 05 00 00 	add    rsp,0x558
    7d02:	5b                   	pop    rbx
    7d03:	41 5c                	pop    r12
    7d05:	41 5d                	pop    r13
    7d07:	41 5e                	pop    r14
    7d09:	41 5f                	pop    r15
    7d0b:	5d                   	pop    rbp
    7d0c:	c3                   	ret
    7d0d:	eb 1a                	jmp    7d29 <__cxa_finalize@plt+0x2a39>
    7d0f:	eb 18                	jmp    7d29 <__cxa_finalize@plt+0x2a39>
    7d11:	48 89 c3             	mov    rbx,rax
    7d14:	48 8d bc 24 08 02 00 	lea    rdi,[rsp+0x208]
    7d1b:	00 
    7d1c:	e8 bf f3 ff ff       	call   70e0 <__cxa_finalize@plt+0x1df0>
    7d21:	eb 28                	jmp    7d4b <__cxa_finalize@plt+0x2a5b>
    7d23:	eb 23                	jmp    7d48 <__cxa_finalize@plt+0x2a58>
    7d25:	eb 02                	jmp    7d29 <__cxa_finalize@plt+0x2a39>
    7d27:	eb 00                	jmp    7d29 <__cxa_finalize@plt+0x2a39>
    7d29:	48 89 c3             	mov    rbx,rax
    7d2c:	48 8d bc 24 90 01 00 	lea    rdi,[rsp+0x190]
    7d33:	00 
    7d34:	e8 e7 f1 ff ff       	call   6f20 <__cxa_finalize@plt+0x1c30>
    7d39:	48 8d bc 24 08 02 00 	lea    rdi,[rsp+0x208]
    7d40:	00 
    7d41:	e8 9a f3 ff ff       	call   70e0 <__cxa_finalize@plt+0x1df0>
    7d46:	eb 03                	jmp    7d4b <__cxa_finalize@plt+0x2a5b>
    7d48:	48 89 c3             	mov    rbx,rax
    7d4b:	48 89 df             	mov    rdi,rbx
    7d4e:	e8 8d d5 ff ff       	call   52e0 <_Unwind_Resume@plt>
    7d53:	0f 0b                	ud2
    7d55:	66 2e 0f 1f 84 00 00 	cs nop WORD PTR [rax+rax*1+0x0]
    7d5c:	00 00 00 
    7d5f:	90                   	nop
    7d60:	41 56                	push   r14
    7d62:	53                   	push   rbx
    7d63:	48 83 ec 28          	sub    rsp,0x28
    7d67:	49 89 fe             	mov    r14,rdi
    7d6a:	48 8b 01             	mov    rax,QWORD PTR [rcx]
    7d6d:	48 83 c0 e6          	add    rax,0xffffffffffffffe6
    7d71:	48 83 f8 05          	cmp    rax,0x5
    7d75:	77 37                	ja     7dae <__cxa_finalize@plt+0x2abe>
    7d77:	48 89 f3             	mov    rbx,rsi
    7d7a:	48 8d 35 2b 21 03 00 	lea    rsi,[rip+0x3212b]        # 39eac <__cxa_finalize@plt+0x34bbc>
    7d81:	48 63 04 86          	movsxd rax,DWORD PTR [rsi+rax*4]
    7d85:	48 01 f0             	add    rax,rsi
    7d88:	ff e0                	jmp    rax
    7d8a:	48 8b 49 08          	mov    rcx,QWORD PTR [rcx+0x8]
    7d8e:	48 8b 43 50          	mov    rax,QWORD PTR [rbx+0x50]
    7d92:	48 8b 53 58          	mov    rdx,QWORD PTR [rbx+0x58]
    7d96:	48 89 44 24 10       	mov    QWORD PTR [rsp+0x10],rax
    7d9b:	48 89 54 24 18       	mov    QWORD PTR [rsp+0x18],rdx
    7da0:	48 29 ca             	sub    rdx,rcx
    7da3:	0f 83 80 00 00 00    	jae    7e29 <__cxa_finalize@plt+0x2b39>
    7da9:	e9 c7 00 00 00       	jmp    7e75 <__cxa_finalize@plt+0x2b85>
    7dae:	41 c6 46 08 44       	mov    BYTE PTR [r14+0x8],0x44
    7db3:	e9 e4 00 00 00       	jmp    7e9c <__cxa_finalize@plt+0x2bac>
    7db8:	48 8b 49 08          	mov    rcx,QWORD PTR [rcx+0x8]
    7dbc:	48 8b 43 70          	mov    rax,QWORD PTR [rbx+0x70]
    7dc0:	48 8b 53 78          	mov    rdx,QWORD PTR [rbx+0x78]
    7dc4:	48 89 44 24 10       	mov    QWORD PTR [rsp+0x10],rax
    7dc9:	48 89 54 24 18       	mov    QWORD PTR [rsp+0x18],rdx
    7dce:	48 29 ca             	sub    rdx,rcx
    7dd1:	73 56                	jae    7e29 <__cxa_finalize@plt+0x2b39>
    7dd3:	e9 9d 00 00 00       	jmp    7e75 <__cxa_finalize@plt+0x2b85>
    7dd8:	4c 8b 41 08          	mov    r8,QWORD PTR [rcx+0x8]
    7ddc:	48 8d 73 60          	lea    rsi,[rbx+0x60]
    7de0:	48 8b 8a 90 00 00 00 	mov    rcx,QWORD PTR [rdx+0x90]
    7de7:	0f b6 52 31          	movzx  edx,BYTE PTR [rdx+0x31]
    7deb:	48 8d 7c 24 10       	lea    rdi,[rsp+0x10]
    7df0:	e8 9b ba 01 00       	call   23890 <__cxa_finalize@plt+0x1e5a0>
    7df5:	f3 0f 6f 44 24 18    	movdqu xmm0,XMMWORD PTR [rsp+0x18]
    7dfb:	48 83 7c 24 10 01    	cmp    QWORD PTR [rsp+0x10],0x1
    7e01:	75 56                	jne    7e59 <__cxa_finalize@plt+0x2b69>
    7e03:	f3 41 0f 7f 46 08    	movdqu XMMWORD PTR [r14+0x8],xmm0
    7e09:	e9 8e 00 00 00       	jmp    7e9c <__cxa_finalize@plt+0x2bac>
    7e0e:	48 8b 49 08          	mov    rcx,QWORD PTR [rcx+0x8]
    7e12:	48 8b 43 40          	mov    rax,QWORD PTR [rbx+0x40]
    7e16:	48 8b 53 48          	mov    rdx,QWORD PTR [rbx+0x48]
    7e1a:	48 89 44 24 10       	mov    QWORD PTR [rsp+0x10],rax
    7e1f:	48 89 54 24 18       	mov    QWORD PTR [rsp+0x18],rdx
    7e24:	48 29 ca             	sub    rdx,rcx
    7e27:	72 4c                	jb     7e75 <__cxa_finalize@plt+0x2b85>
    7e29:	48 01 c8             	add    rax,rcx
    7e2c:	48 89 44 24 10       	mov    QWORD PTR [rsp+0x10],rax
    7e31:	48 89 54 24 18       	mov    QWORD PTR [rsp+0x18],rdx
    7e36:	48 8d 74 24 10       	lea    rsi,[rsp+0x10]
    7e3b:	4c 89 f7             	mov    rdi,r14
    7e3e:	e8 0d 99 00 00       	call   11750 <__cxa_finalize@plt+0xc460>
    7e43:	eb 5e                	jmp    7ea3 <__cxa_finalize@plt+0x2bb3>
    7e45:	f3 0f 6f 41 08       	movdqu xmm0,XMMWORD PTR [rcx+0x8]
    7e4a:	f3 41 0f 7f 46 08    	movdqu XMMWORD PTR [r14+0x8],xmm0
    7e50:	49 c7 06 00 00 00 00 	mov    QWORD PTR [r14],0x0
    7e57:	eb 4a                	jmp    7ea3 <__cxa_finalize@plt+0x2bb3>
    7e59:	48 8b 43 50          	mov    rax,QWORD PTR [rbx+0x50]
    7e5d:	48 8b 4b 58          	mov    rcx,QWORD PTR [rbx+0x58]
    7e61:	48 89 44 24 10       	mov    QWORD PTR [rsp+0x10],rax
    7e66:	48 89 4c 24 18       	mov    QWORD PTR [rsp+0x18],rcx
    7e6b:	66 48 0f 7e c2       	movq   rdx,xmm0
    7e70:	48 29 d1             	sub    rcx,rdx
    7e73:	73 39                	jae    7eae <__cxa_finalize@plt+0x2bbe>
    7e75:	8b 4c 24 09          	mov    ecx,DWORD PTR [rsp+0x9]
    7e79:	8b 54 24 0c          	mov    edx,DWORD PTR [rsp+0xc]
    7e7d:	89 54 24 03          	mov    DWORD PTR [rsp+0x3],edx
    7e81:	89 0c 24             	mov    DWORD PTR [rsp],ecx
    7e84:	41 c6 46 08 13       	mov    BYTE PTR [r14+0x8],0x13
    7e89:	8b 0c 24             	mov    ecx,DWORD PTR [rsp]
    7e8c:	8b 54 24 03          	mov    edx,DWORD PTR [rsp+0x3]
    7e90:	41 89 4e 09          	mov    DWORD PTR [r14+0x9],ecx
    7e94:	41 89 56 0c          	mov    DWORD PTR [r14+0xc],edx
    7e98:	49 89 46 10          	mov    QWORD PTR [r14+0x10],rax
    7e9c:	49 c7 06 01 00 00 00 	mov    QWORD PTR [r14],0x1
    7ea3:	4c 89 f0             	mov    rax,r14
    7ea6:	48 83 c4 28          	add    rsp,0x28
    7eaa:	5b                   	pop    rbx
    7eab:	41 5e                	pop    r14
    7ead:	c3                   	ret
    7eae:	48 01 d0             	add    rax,rdx
    7eb1:	48 89 44 24 10       	mov    QWORD PTR [rsp+0x10],rax
    7eb6:	48 89 4c 24 18       	mov    QWORD PTR [rsp+0x18],rcx
    7ebb:	e9 76 ff ff ff       	jmp    7e36 <__cxa_finalize@plt+0x2b46>
    7ec0:	41 57                	push   r15
    7ec2:	41 56                	push   r14
    7ec4:	53                   	push   rbx
    7ec5:	48 83 ec 20          	sub    rsp,0x20
    7ec9:	48 89 f3             	mov    rbx,rsi
    7ecc:	49 89 ff             	mov    r15,rdi
    7ecf:	4c 8b 36             	mov    r14,QWORD PTR [rsi]
    7ed2:	48 8b 56 10          	mov    rdx,QWORD PTR [rsi+0x10]
    7ed6:	4c 89 f7             	mov    rdi,r14
    7ed9:	31 f6                	xor    esi,esi
    7edb:	ff 15 af 2b 24 00    	call   QWORD PTR [rip+0x242baf]        # 24aa90 <__cxa_finalize@plt+0x2457a0>
    7ee1:	48 85 c0             	test   rax,rax
    7ee4:	74 21                	je     7f07 <__cxa_finalize@plt+0x2c17>
    7ee6:	4c 29 f0             	sub    rax,r14
    7ee9:	49 89 47 08          	mov    QWORD PTR [r15+0x8],rax
    7eed:	0f 10 03             	movups xmm0,XMMWORD PTR [rbx]
    7ef0:	41 0f 11 47 10       	movups XMMWORD PTR [r15+0x10],xmm0
    7ef5:	48 8b 43 10          	mov    rax,QWORD PTR [rbx+0x10]
    7ef9:	49 89 47 20          	mov    QWORD PTR [r15+0x20],rax
    7efd:	b8 01 00 00 00       	mov    eax,0x1
    7f02:	e9 9f 00 00 00       	jmp    7fa6 <__cxa_finalize@plt+0x2cb6>
    7f07:	0f 10 03             	movups xmm0,XMMWORD PTR [rbx]
    7f0a:	0f 29 04 24          	movaps XMMWORD PTR [rsp],xmm0
    7f0e:	48 8b 73 10          	mov    rsi,QWORD PTR [rbx+0x10]
    7f12:	48 89 74 24 10       	mov    QWORD PTR [rsp+0x10],rsi
    7f17:	48 89 e7             	mov    rdi,rsp
    7f1a:	ba 01 00 00 00       	mov    edx,0x1
    7f1f:	e8 0c cf 01 00       	call   24e30 <__cxa_finalize@plt+0x1fb40>
    7f24:	48 8b 74 24 10       	mov    rsi,QWORD PTR [rsp+0x10]
    7f29:	48 3b 74 24 08       	cmp    rsi,QWORD PTR [rsp+0x8]
    7f2e:	75 12                	jne    7f42 <__cxa_finalize@plt+0x2c52>
    7f30:	48 89 e7             	mov    rdi,rsp
    7f33:	ba 01 00 00 00       	mov    edx,0x1
    7f38:	e8 d3 d5 01 00       	call   25510 <__cxa_finalize@plt+0x20220>
    7f3d:	48 8b 74 24 10       	mov    rsi,QWORD PTR [rsp+0x10]
    7f42:	48 8b 04 24          	mov    rax,QWORD PTR [rsp]
    7f46:	c6 04 30 00          	mov    BYTE PTR [rax+rsi*1],0x0
    7f4a:	4c 8b 74 24 10       	mov    r14,QWORD PTR [rsp+0x10]
    7f4f:	49 83 c6 01          	add    r14,0x1
    7f53:	4c 89 74 24 10       	mov    QWORD PTR [rsp+0x10],r14
    7f58:	48 8b 3c 24          	mov    rdi,QWORD PTR [rsp]
    7f5c:	48 8b 74 24 08       	mov    rsi,QWORD PTR [rsp+0x8]
    7f61:	4c 39 f6             	cmp    rsi,r14
    7f64:	76 36                	jbe    7f9c <__cxa_finalize@plt+0x2cac>
    7f66:	ba 01 00 00 00       	mov    edx,0x1
    7f6b:	4d 85 f6             	test   r14,r14
    7f6e:	74 21                	je     7f91 <__cxa_finalize@plt+0x2ca1>
    7f70:	4c 89 f1             	mov    rcx,r14
    7f73:	ff 15 7f 2a 24 00    	call   QWORD PTR [rip+0x242a7f]        # 24a9f8 <__cxa_finalize@plt+0x245708>
    7f79:	48 89 c7             	mov    rdi,rax
    7f7c:	48 85 c0             	test   rax,rax
    7f7f:	75 1b                	jne    7f9c <__cxa_finalize@plt+0x2cac>
    7f81:	be 01 00 00 00       	mov    esi,0x1
    7f86:	4c 89 f7             	mov    rdi,r14
    7f89:	ff 15 31 2f 24 00    	call   QWORD PTR [rip+0x242f31]        # 24aec0 <__cxa_finalize@plt+0x245bd0>
    7f8f:	0f 0b                	ud2
    7f91:	ff 15 31 2c 24 00    	call   QWORD PTR [rip+0x242c31]        # 24abc8 <__cxa_finalize@plt+0x2458d8>
    7f97:	bf 01 00 00 00       	mov    edi,0x1
    7f9c:	49 89 7f 08          	mov    QWORD PTR [r15+0x8],rdi
    7fa0:	4d 89 77 10          	mov    QWORD PTR [r15+0x10],r14
    7fa4:	31 c0                	xor    eax,eax
    7fa6:	49 89 07             	mov    QWORD PTR [r15],rax
    7fa9:	4c 89 f8             	mov    rax,r15
    7fac:	48 83 c4 20          	add    rsp,0x20
    7fb0:	5b                   	pop    rbx
    7fb1:	41 5e                	pop    r14
    7fb3:	41 5f                	pop    r15
    7fb5:	c3                   	ret
    7fb6:	48 89 c3             	mov    rbx,rax
    7fb9:	48 89 e7             	mov    rdi,rsp
    7fbc:	e8 ef f0 ff ff       	call   70b0 <__cxa_finalize@plt+0x1dc0>
    7fc1:	48 89 df             	mov    rdi,rbx
    7fc4:	e8 17 d3 ff ff       	call   52e0 <_Unwind_Resume@plt>
    7fc9:	0f 0b                	ud2
    7fcb:	0f 1f 44 00 00       	nop    DWORD PTR [rax+rax*1+0x0]
    7fd0:	41 57                	push   r15
    7fd2:	41 56                	push   r14
    7fd4:	53                   	push   rbx
    7fd5:	48 83 ec 50          	sub    rsp,0x50
    7fd9:	bf 00 04 00 00       	mov    edi,0x400
    7fde:	be 01 00 00 00       	mov    esi,0x1
    7fe3:	ff 15 b7 2d 24 00    	call   QWORD PTR [rip+0x242db7]        # 24ada0 <__cxa_finalize@plt+0x245ab0>
    7fe9:	48 85 c0             	test   rax,rax
    7fec:	0f 84 00 01 00 00    	je     80f2 <__cxa_finalize@plt+0x2e02>
    7ff2:	49 89 c6             	mov    r14,rax
    7ff5:	0f b7 44 24 1e       	movzx  eax,WORD PTR [rsp+0x1e]
    7ffa:	66 89 44 24 0c       	mov    WORD PTR [rsp+0xc],ax
    7fff:	8b 44 24 1a          	mov    eax,DWORD PTR [rsp+0x1a]
    8003:	89 44 24 08          	mov    DWORD PTR [rsp+0x8],eax
    8007:	8b 44 24 20          	mov    eax,DWORD PTR [rsp+0x20]
    800b:	8b 4c 24 23          	mov    ecx,DWORD PTR [rsp+0x23]
    800f:	89 44 24 10          	mov    DWORD PTR [rsp+0x10],eax
    8013:	89 4c 24 13          	mov    DWORD PTR [rsp+0x13],ecx
    8017:	0f 57 c0             	xorps  xmm0,xmm0
    801a:	0f 29 44 24 20       	movaps XMMWORD PTR [rsp+0x20],xmm0
    801f:	0f 29 44 24 30       	movaps XMMWORD PTR [rsp+0x30],xmm0
    8024:	48 c7 44 24 40 00 00 	mov    QWORD PTR [rsp+0x40],0x0
    802b:	00 00 
    802d:	bf 68 00 00 00       	mov    edi,0x68
    8032:	be 08 00 00 00       	mov    esi,0x8
    8037:	ff 15 63 2d 24 00    	call   QWORD PTR [rip+0x242d63]        # 24ada0 <__cxa_finalize@plt+0x245ab0>
    803d:	48 85 c0             	test   rax,rax
    8040:	0f 84 be 00 00 00    	je     8104 <__cxa_finalize@plt+0x2e14>
    8046:	48 89 c3             	mov    rbx,rax
    8049:	0f 28 05 a0 1e 03 00 	movaps xmm0,XMMWORD PTR [rip+0x31ea0]        # 39ef0 <__cxa_finalize@plt+0x34c00>
    8050:	0f 11 00             	movups XMMWORD PTR [rax],xmm0
    8053:	49 89 c7             	mov    r15,rax
    8056:	49 83 c7 10          	add    r15,0x10
    805a:	0f 28 44 24 20       	movaps xmm0,XMMWORD PTR [rsp+0x20]
    805f:	0f 28 4c 24 30       	movaps xmm1,XMMWORD PTR [rsp+0x30]
    8064:	0f 11 40 10          	movups XMMWORD PTR [rax+0x10],xmm0
    8068:	0f 11 48 20          	movups XMMWORD PTR [rax+0x20],xmm1
    806c:	48 8b 44 24 40       	mov    rax,QWORD PTR [rsp+0x40]
    8071:	48 89 43 30          	mov    QWORD PTR [rbx+0x30],rax
    8075:	48 c7 43 38 00 00 00 	mov    QWORD PTR [rbx+0x38],0x0
    807c:	00 
    807d:	4c 89 73 40          	mov    QWORD PTR [rbx+0x40],r14
    8081:	0f 28 05 78 1e 03 00 	movaps xmm0,XMMWORD PTR [rip+0x31e78]        # 39f00 <__cxa_finalize@plt+0x34c10>
    8088:	0f 11 43 48          	movups XMMWORD PTR [rbx+0x48],xmm0
    808c:	66 c7 43 58 01 00    	mov    WORD PTR [rbx+0x58],0x1
    8092:	8b 44 24 08          	mov    eax,DWORD PTR [rsp+0x8]
    8096:	89 43 5a             	mov    DWORD PTR [rbx+0x5a],eax
    8099:	0f b7 44 24 0c       	movzx  eax,WORD PTR [rsp+0xc]
    809e:	66 89 43 5e          	mov    WORD PTR [rbx+0x5e],ax
    80a2:	c6 43 60 00          	mov    BYTE PTR [rbx+0x60],0x0
    80a6:	8b 44 24 10          	mov    eax,DWORD PTR [rsp+0x10]
    80aa:	8b 4c 24 13          	mov    ecx,DWORD PTR [rsp+0x13]
    80ae:	89 43 61             	mov    DWORD PTR [rbx+0x61],eax
    80b1:	89 4b 64             	mov    DWORD PTR [rbx+0x64],ecx
    80b4:	4c 8d 74 24 20       	lea    r14,[rsp+0x20]
    80b9:	4c 89 f7             	mov    rdi,r14
    80bc:	ff 15 8e 2e 24 00    	call   QWORD PTR [rip+0x242e8e]        # 24af50 <__cxa_finalize@plt+0x245c60>
    80c2:	4c 89 f7             	mov    rdi,r14
    80c5:	be 01 00 00 00       	mov    esi,0x1
    80ca:	ff 15 48 2d 24 00    	call   QWORD PTR [rip+0x242d48]        # 24ae18 <__cxa_finalize@plt+0x245b28>
    80d0:	4c 89 ff             	mov    rdi,r15
    80d3:	4c 89 f6             	mov    rsi,r14
    80d6:	ff 15 ac 2a 24 00    	call   QWORD PTR [rip+0x242aac]        # 24ab88 <__cxa_finalize@plt+0x245898>
    80dc:	4c 89 f7             	mov    rdi,r14
    80df:	ff 15 03 2a 24 00    	call   QWORD PTR [rip+0x242a03]        # 24aae8 <__cxa_finalize@plt+0x2457f8>
    80e5:	48 89 d8             	mov    rax,rbx
    80e8:	48 83 c4 50          	add    rsp,0x50
    80ec:	5b                   	pop    rbx
    80ed:	41 5e                	pop    r14
    80ef:	41 5f                	pop    r15
    80f1:	c3                   	ret
    80f2:	bf 00 04 00 00       	mov    edi,0x400
    80f7:	be 01 00 00 00       	mov    esi,0x1
    80fc:	ff 15 be 2d 24 00    	call   QWORD PTR [rip+0x242dbe]        # 24aec0 <__cxa_finalize@plt+0x245bd0>
    8102:	0f 0b                	ud2
    8104:	bf 68 00 00 00       	mov    edi,0x68
    8109:	be 08 00 00 00       	mov    esi,0x8
    810e:	ff 15 ac 2d 24 00    	call   QWORD PTR [rip+0x242dac]        # 24aec0 <__cxa_finalize@plt+0x245bd0>
    8114:	0f 0b                	ud2
    8116:	66 2e 0f 1f 84 00 00 	cs nop WORD PTR [rax+rax*1+0x0]
    811d:	00 00 00 
    8120:	41 57                	push   r15
    8122:	41 56                	push   r14
    8124:	41 54                	push   r12
    8126:	53                   	push   rbx
    8127:	48 83 ec 68          	sub    rsp,0x68
    812b:	49 89 d6             	mov    r14,rdx
    812e:	49 89 fc             	mov    r12,rdi
    8131:	48 8b 1e             	mov    rbx,QWORD PTR [rsi]
    8134:	48 83 c3 10          	add    rbx,0x10
    8138:	48 89 df             	mov    rdi,rbx
    813b:	ff 15 ff 2d 24 00    	call   QWORD PTR [rip+0x242dff]        # 24af40 <__cxa_finalize@plt+0x245c50>
    8141:	48 89 5c 24 10       	mov    QWORD PTR [rsp+0x10],rbx
    8146:	48 8d 44 24 10       	lea    rax,[rsp+0x10]
    814b:	48 89 44 24 18       	mov    QWORD PTR [rsp+0x18],rax
    8150:	c6 44 24 20 03       	mov    BYTE PTR [rsp+0x20],0x3
    8155:	41 0f 10 06          	movups xmm0,XMMWORD PTR [r14]
    8159:	41 0f 10 4e 10       	movups xmm1,XMMWORD PTR [r14+0x10]
    815e:	41 0f 10 56 20       	movups xmm2,XMMWORD PTR [r14+0x20]
    8163:	0f 29 54 24 50       	movaps XMMWORD PTR [rsp+0x50],xmm2
    8168:	0f 29 4c 24 40       	movaps XMMWORD PTR [rsp+0x40],xmm1
    816d:	0f 29 44 24 30       	movaps XMMWORD PTR [rsp+0x30],xmm0
    8172:	48 8d 35 1f 02 24 00 	lea    rsi,[rip+0x24021f]        # 248398 <__cxa_finalize@plt+0x2430a8>
    8179:	48 8d 7c 24 18       	lea    rdi,[rsp+0x18]
    817e:	48 8d 54 24 30       	lea    rdx,[rsp+0x30]
    8183:	ff 15 5f 2d 24 00    	call   QWORD PTR [rip+0x242d5f]        # 24aee8 <__cxa_finalize@plt+0x245bf8>
    8189:	84 c0                	test   al,al
    818b:	0f 84 8a 00 00 00    	je     821b <__cxa_finalize@plt+0x2f2b>
    8191:	80 7c 24 20 03       	cmp    BYTE PTR [rsp+0x20],0x3
    8196:	0f 85 cf 00 00 00    	jne    826b <__cxa_finalize@plt+0x2f7b>
    819c:	48 8d 3d f7 1d 03 00 	lea    rdi,[rip+0x31df7]        # 39f9a <__cxa_finalize@plt+0x34caa>
    81a3:	be 0f 00 00 00       	mov    esi,0xf
    81a8:	e8 e3 8a 01 00       	call   20c90 <__cxa_finalize@plt+0x1b9a0>
    81ad:	49 89 c6             	mov    r14,rax
    81b0:	49 89 d7             	mov    r15,rdx
    81b3:	bf 18 00 00 00       	mov    edi,0x18
    81b8:	be 08 00 00 00       	mov    esi,0x8
    81bd:	ff 15 dd 2b 24 00    	call   QWORD PTR [rip+0x242bdd]        # 24ada0 <__cxa_finalize@plt+0x245ab0>
    81c3:	48 85 c0             	test   rax,rax
    81c6:	0f 84 c6 00 00 00    	je     8292 <__cxa_finalize@plt+0x2fa2>
    81cc:	4c 89 30             	mov    QWORD PTR [rax],r14
    81cf:	4c 89 78 08          	mov    QWORD PTR [rax+0x8],r15
    81d3:	c6 40 10 10          	mov    BYTE PTR [rax+0x10],0x10
    81d7:	8b 4c 24 30          	mov    ecx,DWORD PTR [rsp+0x30]
    81db:	8b 54 24 33          	mov    edx,DWORD PTR [rsp+0x33]
    81df:	89 50 14             	mov    DWORD PTR [rax+0x14],edx
    81e2:	89 48 11             	mov    DWORD PTR [rax+0x11],ecx
    81e5:	8b 4c 24 30          	mov    ecx,DWORD PTR [rsp+0x30]
    81e9:	8b 54 24 33          	mov    edx,DWORD PTR [rsp+0x33]
    81ed:	89 4c 24 08          	mov    DWORD PTR [rsp+0x8],ecx
    81f1:	89 54 24 0b          	mov    DWORD PTR [rsp+0xb],edx
    81f5:	41 c6 04 24 02       	mov    BYTE PTR [r12],0x2
    81fa:	8b 4c 24 08          	mov    ecx,DWORD PTR [rsp+0x8]
    81fe:	8b 54 24 0b          	mov    edx,DWORD PTR [rsp+0xb]
    8202:	41 89 4c 24 01       	mov    DWORD PTR [r12+0x1],ecx
    8207:	41 89 54 24 04       	mov    DWORD PTR [r12+0x4],edx
    820c:	49 89 44 24 08       	mov    QWORD PTR [r12+0x8],rax
    8211:	8a 44 24 20          	mov    al,BYTE PTR [rsp+0x20]
    8215:	3c 03                	cmp    al,0x3
    8217:	76 0f                	jbe    8228 <__cxa_finalize@plt+0x2f38>
    8219:	eb 11                	jmp    822c <__cxa_finalize@plt+0x2f3c>
    821b:	41 c6 04 24 03       	mov    BYTE PTR [r12],0x3
    8220:	8a 44 24 20          	mov    al,BYTE PTR [rsp+0x20]
    8224:	3c 03                	cmp    al,0x3
    8226:	77 04                	ja     822c <__cxa_finalize@plt+0x2f3c>
    8228:	3c 02                	cmp    al,0x2
    822a:	75 4c                	jne    8278 <__cxa_finalize@plt+0x2f88>
    822c:	48 8b 5c 24 28       	mov    rbx,QWORD PTR [rsp+0x28]
    8231:	48 8b 3b             	mov    rdi,QWORD PTR [rbx]
    8234:	48 8b 43 08          	mov    rax,QWORD PTR [rbx+0x8]
    8238:	ff 10                	call   QWORD PTR [rax]
    823a:	48 8b 43 08          	mov    rax,QWORD PTR [rbx+0x8]
    823e:	48 8b 70 08          	mov    rsi,QWORD PTR [rax+0x8]
    8242:	48 85 f6             	test   rsi,rsi
    8245:	74 0d                	je     8254 <__cxa_finalize@plt+0x2f64>
    8247:	48 8b 50 10          	mov    rdx,QWORD PTR [rax+0x10]
    824b:	48 8b 3b             	mov    rdi,QWORD PTR [rbx]
    824e:	ff 15 74 29 24 00    	call   QWORD PTR [rip+0x242974]        # 24abc8 <__cxa_finalize@plt+0x2458d8>
    8254:	48 8b 7c 24 28       	mov    rdi,QWORD PTR [rsp+0x28]
    8259:	be 18 00 00 00       	mov    esi,0x18
    825e:	ba 08 00 00 00       	mov    edx,0x8
    8263:	ff 15 5f 29 24 00    	call   QWORD PTR [rip+0x24295f]        # 24abc8 <__cxa_finalize@plt+0x2458d8>
    8269:	eb 0d                	jmp    8278 <__cxa_finalize@plt+0x2f88>
    826b:	48 8d 44 24 20       	lea    rax,[rsp+0x20]
    8270:	0f 10 00             	movups xmm0,XMMWORD PTR [rax]
    8273:	41 0f 11 04 24       	movups XMMWORD PTR [r12],xmm0
    8278:	48 8b 7c 24 10       	mov    rdi,QWORD PTR [rsp+0x10]
    827d:	ff 15 15 2d 24 00    	call   QWORD PTR [rip+0x242d15]        # 24af98 <__cxa_finalize@plt+0x245ca8>
    8283:	4c 89 e0             	mov    rax,r12
    8286:	48 83 c4 68          	add    rsp,0x68
    828a:	5b                   	pop    rbx
    828b:	41 5c                	pop    r12
    828d:	41 5e                	pop    r14
    828f:	41 5f                	pop    r15
    8291:	c3                   	ret
    8292:	bf 18 00 00 00       	mov    edi,0x18
    8297:	be 08 00 00 00       	mov    esi,0x8
    829c:	ff 15 1e 2c 24 00    	call   QWORD PTR [rip+0x242c1e]        # 24aec0 <__cxa_finalize@plt+0x245bd0>
    82a2:	0f 0b                	ud2
    82a4:	49 89 c6             	mov    r14,rax
    82a7:	48 8b 3b             	mov    rdi,QWORD PTR [rbx]
    82aa:	48 8b 73 08          	mov    rsi,QWORD PTR [rbx+0x8]
    82ae:	e8 8d ef ff ff       	call   7240 <__cxa_finalize@plt+0x1f50>
    82b3:	48 8b 7c 24 28       	mov    rdi,QWORD PTR [rsp+0x28]
    82b8:	e8 a3 ef ff ff       	call   7260 <__cxa_finalize@plt+0x1f70>
    82bd:	eb 0d                	jmp    82cc <__cxa_finalize@plt+0x2fdc>
    82bf:	49 89 c6             	mov    r14,rax
    82c2:	48 8d 7c 24 18       	lea    rdi,[rsp+0x18]
    82c7:	e8 d4 eb ff ff       	call   6ea0 <__cxa_finalize@plt+0x1bb0>
    82cc:	48 8d 7c 24 10       	lea    rdi,[rsp+0x10]
    82d1:	e8 ca ed ff ff       	call   70a0 <__cxa_finalize@plt+0x1db0>
    82d6:	4c 89 f7             	mov    rdi,r14
    82d9:	e8 02 d0 ff ff       	call   52e0 <_Unwind_Resume@plt>
    82de:	0f 0b                	ud2
    82e0:	49 89 c6             	mov    r14,rax
    82e3:	eb e7                	jmp    82cc <__cxa_finalize@plt+0x2fdc>
    82e5:	66 2e 0f 1f 84 00 00 	cs nop WORD PTR [rax+rax*1+0x0]
    82ec:	00 00 00 
    82ef:	90                   	nop
    82f0:	41 57                	push   r15
    82f2:	41 56                	push   r14
    82f4:	53                   	push   rbx
    82f5:	48 83 ec 20          	sub    rsp,0x20
    82f9:	48 89 f2             	mov    rdx,rsi
    82fc:	48 89 fe             	mov    rsi,rdi
    82ff:	48 8d 3d 22 00 24 00 	lea    rdi,[rip+0x240022]        # 248328 <__cxa_finalize@plt+0x243038>
    8306:	e8 15 d8 00 00       	call   15b20 <__cxa_finalize@plt+0x10830>
    830b:	48 89 c3             	mov    rbx,rax
    830e:	49 89 d6             	mov    r14,rdx
    8311:	48 85 c0             	test   rax,rax
    8314:	74 5c                	je     8372 <__cxa_finalize@plt+0x3082>
    8316:	48 89 1c 24          	mov    QWORD PTR [rsp],rbx
    831a:	4c 89 74 24 08       	mov    QWORD PTR [rsp+0x8],r14
    831f:	48 8d 7c 24 10       	lea    rdi,[rsp+0x10]
    8324:	48 89 de             	mov    rsi,rbx
    8327:	41 ff 56 30          	call   QWORD PTR [r14+0x30]
    832b:	8a 44 24 10          	mov    al,BYTE PTR [rsp+0x10]
    832f:	3c 03                	cmp    al,0x3
    8331:	77 04                	ja     8337 <__cxa_finalize@plt+0x3047>
    8333:	3c 02                	cmp    al,0x2
    8335:	75 3b                	jne    8372 <__cxa_finalize@plt+0x3082>
    8337:	4c 8b 7c 24 18       	mov    r15,QWORD PTR [rsp+0x18]
    833c:	49 8b 3f             	mov    rdi,QWORD PTR [r15]
    833f:	49 8b 47 08          	mov    rax,QWORD PTR [r15+0x8]
    8343:	ff 10                	call   QWORD PTR [rax]
    8345:	49 8b 47 08          	mov    rax,QWORD PTR [r15+0x8]
    8349:	48 8b 70 08          	mov    rsi,QWORD PTR [rax+0x8]
    834d:	48 85 f6             	test   rsi,rsi
    8350:	74 0d                	je     835f <__cxa_finalize@plt+0x306f>
    8352:	48 8b 50 10          	mov    rdx,QWORD PTR [rax+0x10]
    8356:	49 8b 3f             	mov    rdi,QWORD PTR [r15]
    8359:	ff 15 69 28 24 00    	call   QWORD PTR [rip+0x242869]        # 24abc8 <__cxa_finalize@plt+0x2458d8>
    835f:	be 18 00 00 00       	mov    esi,0x18
    8364:	ba 08 00 00 00       	mov    edx,0x8
    8369:	4c 89 ff             	mov    rdi,r15
    836c:	ff 15 56 28 24 00    	call   QWORD PTR [rip+0x242856]        # 24abc8 <__cxa_finalize@plt+0x2458d8>
    8372:	48 89 d8             	mov    rax,rbx
    8375:	4c 89 f2             	mov    rdx,r14
    8378:	48 83 c4 20          	add    rsp,0x20
    837c:	5b                   	pop    rbx
    837d:	41 5e                	pop    r14
    837f:	41 5f                	pop    r15
    8381:	c3                   	ret
    8382:	48 89 c3             	mov    rbx,rax
    8385:	49 8b 3f             	mov    rdi,QWORD PTR [r15]
    8388:	49 8b 77 08          	mov    rsi,QWORD PTR [r15+0x8]
    838c:	e8 af ee ff ff       	call   7240 <__cxa_finalize@plt+0x1f50>
    8391:	4c 89 ff             	mov    rdi,r15
    8394:	e8 c7 ee ff ff       	call   7260 <__cxa_finalize@plt+0x1f70>
    8399:	eb 03                	jmp    839e <__cxa_finalize@plt+0x30ae>
    839b:	48 89 c3             	mov    rbx,rax
    839e:	48 89 e7             	mov    rdi,rsp
    83a1:	e8 9a ea ff ff       	call   6e40 <__cxa_finalize@plt+0x1b50>
    83a6:	48 89 df             	mov    rdi,rbx
    83a9:	e8 32 cf ff ff       	call   52e0 <_Unwind_Resume@plt>
    83ae:	0f 0b                	ud2
    83b0:	41 57                	push   r15
    83b2:	41 56                	push   r14
    83b4:	41 54                	push   r12
    83b6:	53                   	push   rbx
    83b7:	48 81 ec c8 00 00 00 	sub    rsp,0xc8
    83be:	0f 10 07             	movups xmm0,XMMWORD PTR [rdi]
    83c1:	0f 10 4f 10          	movups xmm1,XMMWORD PTR [rdi+0x10]
    83c5:	0f 10 57 20          	movups xmm2,XMMWORD PTR [rdi+0x20]
    83c9:	0f 29 94 24 a0 00 00 	movaps XMMWORD PTR [rsp+0xa0],xmm2
    83d0:	00 
    83d1:	0f 29 8c 24 90 00 00 	movaps XMMWORD PTR [rsp+0x90],xmm1
    83d8:	00 
    83d9:	0f 29 84 24 80 00 00 	movaps XMMWORD PTR [rsp+0x80],xmm0
    83e0:	00 
    83e1:	48 8d 05 ac 1b 03 00 	lea    rax,[rip+0x31bac]        # 39f94 <__cxa_finalize@plt+0x34ca4>
    83e8:	48 89 84 24 b8 00 00 	mov    QWORD PTR [rsp+0xb8],rax
    83ef:	00 
    83f0:	48 c7 84 24 c0 00 00 	mov    QWORD PTR [rsp+0xc0],0x6
    83f7:	00 06 00 00 00 
    83fc:	66 66 66 64 48 8b 04 	data16 data16 data16 mov rax,QWORD PTR fs:0x0
    8403:	25 00 00 00 00 
    8408:	83 b8 40 ff ff ff 01 	cmp    DWORD PTR [rax-0xc0],0x1
    840f:	0f 85 85 02 00 00    	jne    869a <__cxa_finalize@plt+0x33aa>
    8415:	48 89 c1             	mov    rcx,rax
    8418:	48 8d 98 48 ff ff ff 	lea    rbx,[rax-0xb8]
    841f:	48 83 3b 00          	cmp    QWORD PTR [rbx],0x0
    8423:	0f 85 8e 02 00 00    	jne    86b7 <__cxa_finalize@plt+0x33c7>
    8429:	4c 8b 7b 08          	mov    r15,QWORD PTR [rbx+0x8]
    842d:	4c 8b 63 10          	mov    r12,QWORD PTR [rbx+0x10]
    8431:	4c 89 7c 24 10       	mov    QWORD PTR [rsp+0x10],r15
    8436:	4c 89 64 24 18       	mov    QWORD PTR [rsp+0x18],r12
    843b:	0f 57 c0             	xorps  xmm0,xmm0
    843e:	0f 11 03             	movups XMMWORD PTR [rbx],xmm0
    8441:	4d 85 ff             	test   r15,r15
    8444:	0f 84 9f 00 00 00    	je     84e9 <__cxa_finalize@plt+0x31f9>
    844a:	4c 89 3c 24          	mov    QWORD PTR [rsp],r15
    844e:	4c 89 64 24 08       	mov    QWORD PTR [rsp+0x8],r12
    8453:	0f 28 84 24 80 00 00 	movaps xmm0,XMMWORD PTR [rsp+0x80]
    845a:	00 
    845b:	0f 28 8c 24 90 00 00 	movaps xmm1,XMMWORD PTR [rsp+0x90]
    8462:	00 
    8463:	0f 28 94 24 a0 00 00 	movaps xmm2,XMMWORD PTR [rsp+0xa0]
    846a:	00 
    846b:	0f 29 54 24 70       	movaps XMMWORD PTR [rsp+0x70],xmm2
    8470:	0f 29 4c 24 60       	movaps XMMWORD PTR [rsp+0x60],xmm1
    8475:	0f 29 44 24 50       	movaps XMMWORD PTR [rsp+0x50],xmm0
    847a:	48 8d 7c 24 20       	lea    rdi,[rsp+0x20]
    847f:	48 8d 54 24 50       	lea    rdx,[rsp+0x50]
    8484:	4c 89 fe             	mov    rsi,r15
    8487:	41 ff 54 24 48       	call   QWORD PTR [r12+0x48]
    848c:	4c 89 7c 24 50       	mov    QWORD PTR [rsp+0x50],r15
    8491:	4c 89 64 24 58       	mov    QWORD PTR [rsp+0x58],r12
    8496:	48 83 3b 00          	cmp    QWORD PTR [rbx],0x0
    849a:	0f 85 3e 02 00 00    	jne    86de <__cxa_finalize@plt+0x33ee>
    84a0:	48 c7 03 ff ff ff ff 	mov    QWORD PTR [rbx],0xffffffffffffffff
    84a7:	48 8b 7b 08          	mov    rdi,QWORD PTR [rbx+0x8]
    84ab:	48 85 ff             	test   rdi,rdi
    84ae:	74 21                	je     84d1 <__cxa_finalize@plt+0x31e1>
    84b0:	48 8b 43 10          	mov    rax,QWORD PTR [rbx+0x10]
    84b4:	ff 10                	call   QWORD PTR [rax]
    84b6:	48 8b 43 10          	mov    rax,QWORD PTR [rbx+0x10]
    84ba:	48 8b 70 08          	mov    rsi,QWORD PTR [rax+0x8]
    84be:	48 85 f6             	test   rsi,rsi
    84c1:	74 0e                	je     84d1 <__cxa_finalize@plt+0x31e1>
    84c3:	48 8b 50 10          	mov    rdx,QWORD PTR [rax+0x10]
    84c7:	48 8b 7b 08          	mov    rdi,QWORD PTR [rbx+0x8]
    84cb:	ff 15 f7 26 24 00    	call   QWORD PTR [rip+0x2426f7]        # 24abc8 <__cxa_finalize@plt+0x2458d8>
    84d1:	4c 89 7b 08          	mov    QWORD PTR [rbx+0x8],r15
    84d5:	4c 89 63 10          	mov    QWORD PTR [rbx+0x10],r12
    84d9:	48 83 03 01          	add    QWORD PTR [rbx],0x1
    84dd:	0f 10 44 24 20       	movups xmm0,XMMWORD PTR [rsp+0x20]
    84e2:	0f 29 44 24 40       	movaps XMMWORD PTR [rsp+0x40],xmm0
    84e7:	eb 73                	jmp    855c <__cxa_finalize@plt+0x326c>
    84e9:	48 8d 3d 50 2b 24 00 	lea    rdi,[rip+0x242b50]        # 24b040 <__cxa_finalize@plt+0x245d50>
    84f0:	48 8d 35 d9 fa ff ff 	lea    rsi,[rip+0xfffffffffffffad9]        # 7fd0 <__cxa_finalize@plt+0x2ce0>
    84f7:	e8 94 d9 00 00       	call   15e90 <__cxa_finalize@plt+0x10ba0>
    84fc:	48 85 c0             	test   rax,rax
    84ff:	0f 84 1b 02 00 00    	je     8720 <__cxa_finalize@plt+0x3430>
    8505:	48 89 44 24 20       	mov    QWORD PTR [rsp+0x20],rax
    850a:	0f 28 84 24 80 00 00 	movaps xmm0,XMMWORD PTR [rsp+0x80]
    8511:	00 
    8512:	0f 28 8c 24 90 00 00 	movaps xmm1,XMMWORD PTR [rsp+0x90]
    8519:	00 
    851a:	0f 28 94 24 a0 00 00 	movaps xmm2,XMMWORD PTR [rsp+0xa0]
    8521:	00 
    8522:	0f 29 54 24 70       	movaps XMMWORD PTR [rsp+0x70],xmm2
    8527:	0f 29 4c 24 60       	movaps XMMWORD PTR [rsp+0x60],xmm1
    852c:	0f 29 44 24 50       	movaps XMMWORD PTR [rsp+0x50],xmm0
    8531:	48 8d 7c 24 40       	lea    rdi,[rsp+0x40]
    8536:	48 8d 74 24 20       	lea    rsi,[rsp+0x20]
    853b:	48 8d 54 24 50       	lea    rdx,[rsp+0x50]
    8540:	ff 15 8a 2a 24 00    	call   QWORD PTR [rip+0x242a8a]        # 24afd0 <__cxa_finalize@plt+0x245ce0>
    8546:	48 8b 44 24 20       	mov    rax,QWORD PTR [rsp+0x20]
    854b:	f0 48 83 28 01       	lock sub QWORD PTR [rax],0x1
    8550:	75 0a                	jne    855c <__cxa_finalize@plt+0x326c>
    8552:	48 8d 7c 24 20       	lea    rdi,[rsp+0x20]
    8557:	e8 c4 88 01 00       	call   20e20 <__cxa_finalize@plt+0x1bb30>
    855c:	8a 44 24 40          	mov    al,BYTE PTR [rsp+0x40]
    8560:	48 8b 4c 24 41       	mov    rcx,QWORD PTR [rsp+0x41]
    8565:	48 89 4c 24 20       	mov    QWORD PTR [rsp+0x20],rcx
    856a:	48 8b 4c 24 48       	mov    rcx,QWORD PTR [rsp+0x48]
    856f:	48 89 4c 24 27       	mov    QWORD PTR [rsp+0x27],rcx
    8574:	3c 04                	cmp    al,0x4
    8576:	0f 85 84 00 00 00    	jne    8600 <__cxa_finalize@plt+0x3310>
    857c:	48 8d 3d bd 2a 24 00 	lea    rdi,[rip+0x242abd]        # 24b040 <__cxa_finalize@plt+0x245d50>
    8583:	48 8d 35 46 fa ff ff 	lea    rsi,[rip+0xfffffffffffffa46]        # 7fd0 <__cxa_finalize@plt+0x2ce0>
    858a:	e8 01 d9 00 00       	call   15e90 <__cxa_finalize@plt+0x10ba0>
    858f:	48 85 c0             	test   rax,rax
    8592:	0f 84 6d 01 00 00    	je     8705 <__cxa_finalize@plt+0x3415>
    8598:	48 89 04 24          	mov    QWORD PTR [rsp],rax
    859c:	0f 28 84 24 80 00 00 	movaps xmm0,XMMWORD PTR [rsp+0x80]
    85a3:	00 
    85a4:	0f 28 8c 24 90 00 00 	movaps xmm1,XMMWORD PTR [rsp+0x90]
    85ab:	00 
    85ac:	0f 28 94 24 a0 00 00 	movaps xmm2,XMMWORD PTR [rsp+0xa0]
    85b3:	00 
    85b4:	0f 29 54 24 70       	movaps XMMWORD PTR [rsp+0x70],xmm2
    85b9:	0f 29 4c 24 60       	movaps XMMWORD PTR [rsp+0x60],xmm1
    85be:	0f 29 44 24 50       	movaps XMMWORD PTR [rsp+0x50],xmm0
    85c3:	48 8d 7c 24 10       	lea    rdi,[rsp+0x10]
    85c8:	48 89 e6             	mov    rsi,rsp
    85cb:	48 8d 54 24 50       	lea    rdx,[rsp+0x50]
    85d0:	ff 15 fa 29 24 00    	call   QWORD PTR [rip+0x2429fa]        # 24afd0 <__cxa_finalize@plt+0x245ce0>
    85d6:	48 8b 04 24          	mov    rax,QWORD PTR [rsp]
    85da:	f0 48 83 28 01       	lock sub QWORD PTR [rax],0x1
    85df:	75 08                	jne    85e9 <__cxa_finalize@plt+0x32f9>
    85e1:	48 89 e7             	mov    rdi,rsp
    85e4:	e8 37 88 01 00       	call   20e20 <__cxa_finalize@plt+0x1bb30>
    85e9:	8a 44 24 10          	mov    al,BYTE PTR [rsp+0x10]
    85ed:	3c 03                	cmp    al,0x3
    85ef:	75 2b                	jne    861c <__cxa_finalize@plt+0x332c>
    85f1:	48 81 c4 c8 00 00 00 	add    rsp,0xc8
    85f8:	5b                   	pop    rbx
    85f9:	41 5c                	pop    r12
    85fb:	41 5e                	pop    r14
    85fd:	41 5f                	pop    r15
    85ff:	c3                   	ret
    8600:	88 44 24 10          	mov    BYTE PTR [rsp+0x10],al
    8604:	48 8b 4c 24 20       	mov    rcx,QWORD PTR [rsp+0x20]
    8609:	48 8b 54 24 27       	mov    rdx,QWORD PTR [rsp+0x27]
    860e:	48 89 4c 24 11       	mov    QWORD PTR [rsp+0x11],rcx
    8613:	48 89 54 24 18       	mov    QWORD PTR [rsp+0x18],rdx
    8618:	3c 03                	cmp    al,0x3
    861a:	74 d5                	je     85f1 <__cxa_finalize@plt+0x3301>
    861c:	0f 10 44 24 10       	movups xmm0,XMMWORD PTR [rsp+0x10]
    8621:	0f 29 04 24          	movaps XMMWORD PTR [rsp],xmm0
    8625:	48 8d 84 24 b8 00 00 	lea    rax,[rsp+0xb8]
    862c:	00 
    862d:	48 89 44 24 20       	mov    QWORD PTR [rsp+0x20],rax
    8632:	48 8d 05 77 05 00 00 	lea    rax,[rip+0x577]        # 8bb0 <__cxa_finalize@plt+0x38c0>
    8639:	48 89 44 24 28       	mov    QWORD PTR [rsp+0x28],rax
    863e:	48 89 e0             	mov    rax,rsp
    8641:	48 89 44 24 30       	mov    QWORD PTR [rsp+0x30],rax
    8646:	48 8d 05 13 bd 01 00 	lea    rax,[rip+0x1bd13]        # 24360 <__cxa_finalize@plt+0x1f070>
    864d:	48 89 44 24 38       	mov    QWORD PTR [rsp+0x38],rax
    8652:	48 8d 05 d7 fc 23 00 	lea    rax,[rip+0x23fcd7]        # 248330 <__cxa_finalize@plt+0x243040>
    8659:	48 89 44 24 50       	mov    QWORD PTR [rsp+0x50],rax
    865e:	48 c7 44 24 58 02 00 	mov    QWORD PTR [rsp+0x58],0x2
    8665:	00 00 
    8667:	48 c7 44 24 60 00 00 	mov    QWORD PTR [rsp+0x60],0x0
    866e:	00 00 
    8670:	48 8d 44 24 20       	lea    rax,[rsp+0x20]
    8675:	48 89 44 24 70       	mov    QWORD PTR [rsp+0x70],rax
    867a:	48 c7 44 24 78 02 00 	mov    QWORD PTR [rsp+0x78],0x2
    8681:	00 00 
    8683:	48 8d 35 c6 fc 23 00 	lea    rsi,[rip+0x23fcc6]        # 248350 <__cxa_finalize@plt+0x243060>
    868a:	48 8d 7c 24 50       	lea    rdi,[rsp+0x50]
    868f:	ff 15 83 26 24 00    	call   QWORD PTR [rip+0x242683]        # 24ad18 <__cxa_finalize@plt+0x245a28>
    8695:	e9 9f 00 00 00       	jmp    8739 <__cxa_finalize@plt+0x3449>
    869a:	48 8d b8 40 ff ff ff 	lea    rdi,[rax-0xc0]
    86a1:	e8 7a d5 00 00       	call   15c20 <__cxa_finalize@plt+0x10930>
    86a6:	48 89 c3             	mov    rbx,rax
    86a9:	48 85 c0             	test   rax,rax
    86ac:	0f 85 6d fd ff ff    	jne    841f <__cxa_finalize@plt+0x312f>
    86b2:	e9 c5 fe ff ff       	jmp    857c <__cxa_finalize@plt+0x328c>
    86b7:	48 8d 3d 52 18 03 00 	lea    rdi,[rip+0x31852]        # 39f10 <__cxa_finalize@plt+0x34c20>
    86be:	48 8d 0d 13 fc 23 00 	lea    rcx,[rip+0x23fc13]        # 2482d8 <__cxa_finalize@plt+0x242fe8>
    86c5:	4c 8d 05 9c fc 23 00 	lea    r8,[rip+0x23fc9c]        # 248368 <__cxa_finalize@plt+0x243078>
    86cc:	48 8d 54 24 40       	lea    rdx,[rsp+0x40]
    86d1:	be 10 00 00 00       	mov    esi,0x10
    86d6:	ff 15 24 27 24 00    	call   QWORD PTR [rip+0x242724]        # 24ae00 <__cxa_finalize@plt+0x245b10>
    86dc:	0f 0b                	ud2
    86de:	48 8d 3d 2b 18 03 00 	lea    rdi,[rip+0x3182b]        # 39f10 <__cxa_finalize@plt+0x34c20>
    86e5:	48 8d 0d ec fb 23 00 	lea    rcx,[rip+0x23fbec]        # 2482d8 <__cxa_finalize@plt+0x242fe8>
    86ec:	4c 8d 05 8d fc 23 00 	lea    r8,[rip+0x23fc8d]        # 248380 <__cxa_finalize@plt+0x243090>
    86f3:	48 8d 54 24 40       	lea    rdx,[rsp+0x40]
    86f8:	be 10 00 00 00       	mov    esi,0x10
    86fd:	ff 15 fd 26 24 00    	call   QWORD PTR [rip+0x2426fd]        # 24ae00 <__cxa_finalize@plt+0x245b10>
    8703:	eb 34                	jmp    8739 <__cxa_finalize@plt+0x3449>
    8705:	48 8d 3d 4f 18 03 00 	lea    rdi,[rip+0x3184f]        # 39f5b <__cxa_finalize@plt+0x34c6b>
    870c:	48 8d 15 e5 fb 23 00 	lea    rdx,[rip+0x23fbe5]        # 2482f8 <__cxa_finalize@plt+0x243008>
    8713:	be 24 00 00 00       	mov    esi,0x24
    8718:	ff 15 9a 22 24 00    	call   QWORD PTR [rip+0x24229a]        # 24a9b8 <__cxa_finalize@plt+0x2456c8>
    871e:	0f 0b                	ud2
    8720:	48 8d 3d 34 18 03 00 	lea    rdi,[rip+0x31834]        # 39f5b <__cxa_finalize@plt+0x34c6b>
    8727:	48 8d 15 ca fb 23 00 	lea    rdx,[rip+0x23fbca]        # 2482f8 <__cxa_finalize@plt+0x243008>
    872e:	be 24 00 00 00       	mov    esi,0x24
    8733:	ff 15 7f 22 24 00    	call   QWORD PTR [rip+0x24227f]        # 24a9b8 <__cxa_finalize@plt+0x2456c8>
    8739:	0f 0b                	ud2
    873b:	49 89 c6             	mov    r14,rax
    873e:	48 8d 7c 24 50       	lea    rdi,[rsp+0x50]
    8743:	e8 f8 e8 ff ff       	call   7040 <__cxa_finalize@plt+0x1d50>
    8748:	eb 4b                	jmp    8795 <__cxa_finalize@plt+0x34a5>
    874a:	49 89 c6             	mov    r14,rax
    874d:	48 89 e7             	mov    rdi,rsp
    8750:	e8 6b ea ff ff       	call   71c0 <__cxa_finalize@plt+0x1ed0>
    8755:	eb 62                	jmp    87b9 <__cxa_finalize@plt+0x34c9>
    8757:	49 89 c6             	mov    r14,rax
    875a:	48 8d 7c 24 10       	lea    rdi,[rsp+0x10]
    875f:	e8 dc e8 ff ff       	call   7040 <__cxa_finalize@plt+0x1d50>
    8764:	48 8d 7c 24 20       	lea    rdi,[rsp+0x20]
    8769:	e8 42 ea ff ff       	call   71b0 <__cxa_finalize@plt+0x1ec0>
    876e:	eb 49                	jmp    87b9 <__cxa_finalize@plt+0x34c9>
    8770:	49 89 c6             	mov    r14,rax
    8773:	eb 44                	jmp    87b9 <__cxa_finalize@plt+0x34c9>
    8775:	49 89 c6             	mov    r14,rax
    8778:	48 8b 7b 08          	mov    rdi,QWORD PTR [rbx+0x8]
    877c:	48 8b 73 10          	mov    rsi,QWORD PTR [rbx+0x10]
    8780:	e8 bb ea ff ff       	call   7240 <__cxa_finalize@plt+0x1f50>
    8785:	4c 89 7b 08          	mov    QWORD PTR [rbx+0x8],r15
    8789:	4c 89 63 10          	mov    QWORD PTR [rbx+0x10],r12
    878d:	48 89 df             	mov    rdi,rbx
    8790:	e8 9b e6 ff ff       	call   6e30 <__cxa_finalize@plt+0x1b40>
    8795:	48 8d 7c 24 20       	lea    rdi,[rsp+0x20]
    879a:	e8 21 e8 ff ff       	call   6fc0 <__cxa_finalize@plt+0x1cd0>
    879f:	eb 18                	jmp    87b9 <__cxa_finalize@plt+0x34c9>
    87a1:	49 89 c6             	mov    r14,rax
    87a4:	48 89 e7             	mov    rdi,rsp
    87a7:	e8 04 ea ff ff       	call   71b0 <__cxa_finalize@plt+0x1ec0>
    87ac:	eb 0b                	jmp    87b9 <__cxa_finalize@plt+0x34c9>
    87ae:	49 89 c6             	mov    r14,rax
    87b1:	48 89 e7             	mov    rdi,rsp
    87b4:	e8 87 e6 ff ff       	call   6e40 <__cxa_finalize@plt+0x1b50>
    87b9:	4c 89 f7             	mov    rdi,r14
    87bc:	e8 1f cb ff ff       	call   52e0 <_Unwind_Resume@plt>
    87c1:	0f 0b                	ud2
    87c3:	66 2e 0f 1f 84 00 00 	cs nop WORD PTR [rax+rax*1+0x0]
    87ca:	00 00 00 
    87cd:	0f 1f 00             	nop    DWORD PTR [rax]
    87d0:	55                   	push   rbp
    87d1:	53                   	push   rbx
    87d2:	48 83 ec 68          	sub    rsp,0x68
    87d6:	48 89 fb             	mov    rbx,rdi
    87d9:	48 8b 77 08          	mov    rsi,QWORD PTR [rdi+0x8]
    87dd:	c7 04 24 00 00 00 00 	mov    DWORD PTR [rsp],0x0
    87e4:	48 89 e7             	mov    rdi,rsp
    87e7:	ff 15 6b 27 24 00    	call   QWORD PTR [rip+0x24276b]        # 24af58 <__cxa_finalize@plt+0x245c68>
    87ed:	89 44 24 04          	mov    DWORD PTR [rsp+0x4],eax
    87f1:	85 c0                	test   eax,eax
    87f3:	75 57                	jne    884c <__cxa_finalize@plt+0x355c>
    87f5:	8b 2c 24             	mov    ebp,DWORD PTR [rsp]
    87f8:	85 ed                	test   ebp,ebp
    87fa:	75 2f                	jne    882b <__cxa_finalize@plt+0x353b>
    87fc:	48 8b 73 08          	mov    rsi,QWORD PTR [rbx+0x8]
    8800:	c7 04 24 00 00 00 00 	mov    DWORD PTR [rsp],0x0
    8807:	48 89 e7             	mov    rdi,rsp
    880a:	ff 15 48 27 24 00    	call   QWORD PTR [rip+0x242748]        # 24af58 <__cxa_finalize@plt+0x245c68>
    8810:	89 44 24 04          	mov    DWORD PTR [rsp+0x4],eax
    8814:	85 c0                	test   eax,eax
    8816:	75 34                	jne    884c <__cxa_finalize@plt+0x355c>
    8818:	8b 2c 24             	mov    ebp,DWORD PTR [rsp]
    881b:	31 ff                	xor    edi,edi
    881d:	ff 15 8d 24 24 00    	call   QWORD PTR [rip+0x24248d]        # 24acb0 <__cxa_finalize@plt+0x2459c0>
    8823:	85 ed                	test   ebp,ebp
    8825:	0f 84 a1 00 00 00    	je     88cc <__cxa_finalize@plt+0x35dc>
    882b:	89 ef                	mov    edi,ebp
    882d:	31 c0                	xor    eax,eax
    882f:	f0 48 0f b1 3b       	lock cmpxchg QWORD PTR [rbx],rdi
    8834:	74 0c                	je     8842 <__cxa_finalize@plt+0x3552>
    8836:	48 89 c3             	mov    rbx,rax
    8839:	ff 15 71 24 24 00    	call   QWORD PTR [rip+0x242471]        # 24acb0 <__cxa_finalize@plt+0x2459c0>
    883f:	48 89 df             	mov    rdi,rbx
    8842:	48 89 f8             	mov    rax,rdi
    8845:	48 83 c4 68          	add    rsp,0x68
    8849:	5b                   	pop    rbx
    884a:	5d                   	pop    rbp
    884b:	c3                   	ret
    884c:	48 8d 44 24 04       	lea    rax,[rsp+0x4]
    8851:	48 89 44 24 08       	mov    QWORD PTR [rsp+0x8],rax
    8856:	48 8d 05 c7 17 03 00 	lea    rax,[rip+0x317c7]        # 3a024 <__cxa_finalize@plt+0x34d34>
    885d:	48 89 44 24 10       	mov    QWORD PTR [rsp+0x10],rax
    8862:	48 8d 44 24 08       	lea    rax,[rsp+0x8]
    8867:	48 89 44 24 48       	mov    QWORD PTR [rsp+0x48],rax
    886c:	48 8d 05 7d 02 00 00 	lea    rax,[rip+0x27d]        # 8af0 <__cxa_finalize@plt+0x3800>
    8873:	48 89 44 24 50       	mov    QWORD PTR [rsp+0x50],rax
    8878:	48 8d 4c 24 10       	lea    rcx,[rsp+0x10]
    887d:	48 89 4c 24 58       	mov    QWORD PTR [rsp+0x58],rcx
    8882:	48 89 44 24 60       	mov    QWORD PTR [rsp+0x60],rax
    8887:	48 8d 05 a2 fb 23 00 	lea    rax,[rip+0x23fba2]        # 248430 <__cxa_finalize@plt+0x243140>
    888e:	48 89 44 24 18       	mov    QWORD PTR [rsp+0x18],rax
    8893:	48 c7 44 24 20 03 00 	mov    QWORD PTR [rsp+0x20],0x3
    889a:	00 00 
    889c:	48 c7 44 24 28 00 00 	mov    QWORD PTR [rsp+0x28],0x0
    88a3:	00 00 
    88a5:	48 8d 44 24 48       	lea    rax,[rsp+0x48]
    88aa:	48 89 44 24 38       	mov    QWORD PTR [rsp+0x38],rax
    88af:	48 c7 44 24 40 02 00 	mov    QWORD PTR [rsp+0x40],0x2
    88b6:	00 00 
    88b8:	48 8d 35 a1 fb 23 00 	lea    rsi,[rip+0x23fba1]        # 248460 <__cxa_finalize@plt+0x243170>
    88bf:	48 8d 7c 24 18       	lea    rdi,[rsp+0x18]
    88c4:	ff 15 4e 24 24 00    	call   QWORD PTR [rip+0x24244e]        # 24ad18 <__cxa_finalize@plt+0x245a28>
    88ca:	0f 0b                	ud2
    88cc:	48 8d 05 0d fb 23 00 	lea    rax,[rip+0x23fb0d]        # 2483e0 <__cxa_finalize@plt+0x2430f0>
    88d3:	48 89 44 24 18       	mov    QWORD PTR [rsp+0x18],rax
    88d8:	48 c7 44 24 20 01 00 	mov    QWORD PTR [rsp+0x20],0x1
    88df:	00 00 
    88e1:	48 c7 44 24 28 00 00 	mov    QWORD PTR [rsp+0x28],0x0
    88e8:	00 00 
    88ea:	48 8d 05 4f 16 03 00 	lea    rax,[rip+0x3164f]        # 39f40 <__cxa_finalize@plt+0x34c50>
    88f1:	48 89 44 24 38       	mov    QWORD PTR [rsp+0x38],rax
    88f6:	48 c7 44 24 40 00 00 	mov    QWORD PTR [rsp+0x40],0x0
    88fd:	00 00 
    88ff:	48 8d 7c 24 18       	lea    rdi,[rsp+0x18]
    8904:	e8 87 21 01 00       	call   1aa90 <__cxa_finalize@plt+0x157a0>
    8909:	0f 0b                	ud2
    890b:	0f 1f 44 00 00       	nop    DWORD PTR [rax+rax*1+0x0]
    8910:	41 57                	push   r15
    8912:	41 56                	push   r14
    8914:	53                   	push   rbx
    8915:	48 83 ec 20          	sub    rsp,0x20
    8919:	48 89 fb             	mov    rbx,rdi
    891c:	4c 8d 7f 08          	lea    r15,[rdi+0x8]
    8920:	48 8d 15 f1 16 03 00 	lea    rdx,[rip+0x316f1]        # 3a018 <__cxa_finalize@plt+0x34d28>
    8927:	4c 8d 74 24 08       	lea    r14,[rsp+0x8]
    892c:	b9 08 00 00 00       	mov    ecx,0x8
    8931:	4c 89 f7             	mov    rdi,r14
    8934:	ff 15 b6 21 24 00    	call   QWORD PTR [rip+0x2421b6]        # 24aaf0 <__cxa_finalize@plt+0x245800>
    893a:	48 89 1c 24          	mov    QWORD PTR [rsp],rbx
    893e:	48 8d 15 ab fa 23 00 	lea    rdx,[rip+0x23faab]        # 2483f0 <__cxa_finalize@plt+0x243100>
    8945:	48 8d 1d 84 f2 02 00 	lea    rbx,[rip+0x2f284]        # 37bd0 <__cxa_finalize@plt+0x328e0>
    894c:	48 89 e6             	mov    rsi,rsp
    894f:	4c 89 f7             	mov    rdi,r14
    8952:	ff d3                	call   rbx
    8954:	4c 89 3c 24          	mov    QWORD PTR [rsp],r15
    8958:	48 8d 15 b1 fa 23 00 	lea    rdx,[rip+0x23fab1]        # 248410 <__cxa_finalize@plt+0x243120>
    895f:	48 89 e6             	mov    rsi,rsp
    8962:	4c 89 f7             	mov    rdi,r14
    8965:	ff d3                	call   rbx
    8967:	4c 89 f7             	mov    rdi,r14
    896a:	ff 15 a8 25 24 00    	call   QWORD PTR [rip+0x2425a8]        # 24af18 <__cxa_finalize@plt+0x245c28>
    8970:	48 83 c4 20          	add    rsp,0x20
    8974:	5b                   	pop    rbx
    8975:	41 5e                	pop    r14
    8977:	41 5f                	pop    r15
    8979:	c3                   	ret
    897a:	66 0f 1f 44 00 00    	nop    WORD PTR [rax+rax*1+0x0]
    8980:	41 57                	push   r15
    8982:	41 56                	push   r14
    8984:	53                   	push   rbx
    8985:	66 66 66 64 48 8b 04 	data16 data16 data16 mov rax,QWORD PTR fs:0x0
    898c:	25 00 00 00 00 
    8991:	83 b8 80 ff ff ff 01 	cmp    DWORD PTR [rax-0x80],0x1
    8998:	75 0d                	jne    89a7 <__cxa_finalize@plt+0x36b7>
    899a:	48 8d 80 88 ff ff ff 	lea    rax,[rax-0x78]
    89a1:	5b                   	pop    rbx
    89a2:	41 5e                	pop    r14
    89a4:	41 5f                	pop    r15
    89a6:	c3                   	ret
    89a7:	48 89 c3             	mov    rbx,rax
    89aa:	8a 83 a0 ff ff ff    	mov    al,BYTE PTR [rbx-0x60]
    89b0:	84 c0                	test   al,al
    89b2:	74 0c                	je     89c0 <__cxa_finalize@plt+0x36d0>
    89b4:	3c 01                	cmp    al,0x1
    89b6:	74 4c                	je     8a04 <__cxa_finalize@plt+0x3714>
    89b8:	31 c0                	xor    eax,eax
    89ba:	5b                   	pop    rbx
    89bb:	41 5e                	pop    r14
    89bd:	41 5f                	pop    r15
    89bf:	c3                   	ret
    89c0:	48 83 3d a0 22 24 00 	cmp    QWORD PTR [rip+0x2422a0],0x0        # 24ac68 <__cxa_finalize@plt+0x245978>
    89c7:	00 
    89c8:	75 15                	jne    89df <__cxa_finalize@plt+0x36ef>
    89ca:	48 8d bb 80 ff ff ff 	lea    rdi,[rbx-0x80]
    89d1:	48 8d 35 e8 d3 00 00 	lea    rsi,[rip+0xd3e8]        # 15dc0 <__cxa_finalize@plt+0x10ad0>
    89d8:	e8 f3 22 00 00       	call   acd0 <__cxa_finalize@plt+0x59e0>
    89dd:	eb 1b                	jmp    89fa <__cxa_finalize@plt+0x370a>
    89df:	48 8d b3 80 ff ff ff 	lea    rsi,[rbx-0x80]
    89e6:	48 8d 3d d3 d3 00 00 	lea    rdi,[rip+0xd3d3]        # 15dc0 <__cxa_finalize@plt+0x10ad0>
    89ed:	48 8d 15 2c 26 24 00 	lea    rdx,[rip+0x24262c]        # 24b020 <__cxa_finalize@plt+0x245d30>
    89f4:	ff 15 6e 22 24 00    	call   QWORD PTR [rip+0x24226e]        # 24ac68 <__cxa_finalize@plt+0x245978>
    89fa:	48 89 d8             	mov    rax,rbx
    89fd:	c6 83 a0 ff ff ff 01 	mov    BYTE PTR [rbx-0x60],0x1
    8a04:	48 89 d8             	mov    rax,rbx
    8a07:	66 0f 6f 83 90 ff ff 	movdqa xmm0,XMMWORD PTR [rbx-0x70]
    8a0e:	ff 
    8a0f:	48 83 bb 80 ff ff ff 	cmp    QWORD PTR [rbx-0x80],0x0
    8a16:	00 
    8a17:	0f 28 0d c2 14 03 00 	movaps xmm1,XMMWORD PTR [rip+0x314c2]        # 39ee0 <__cxa_finalize@plt+0x34bf0>
    8a1e:	0f 29 8b 80 ff ff ff 	movaps XMMWORD PTR [rbx-0x80],xmm1
    8a25:	0f 57 c9             	xorps  xmm1,xmm1
    8a28:	0f 29 8b 90 ff ff ff 	movaps XMMWORD PTR [rbx-0x70],xmm1
    8a2f:	74 30                	je     8a61 <__cxa_finalize@plt+0x3771>
    8a31:	66 49 0f 7e c6       	movq   r14,xmm0
    8a36:	4d 85 f6             	test   r14,r14
    8a39:	74 26                	je     8a61 <__cxa_finalize@plt+0x3771>
    8a3b:	66 0f 70 c0 4e       	pshufd xmm0,xmm0,0x4e
    8a40:	66 49 0f 7e c7       	movq   r15,xmm0
    8a45:	4c 89 f7             	mov    rdi,r14
    8a48:	41 ff 17             	call   QWORD PTR [r15]
    8a4b:	49 8b 77 08          	mov    rsi,QWORD PTR [r15+0x8]
    8a4f:	48 85 f6             	test   rsi,rsi
    8a52:	74 0d                	je     8a61 <__cxa_finalize@plt+0x3771>
    8a54:	49 8b 57 10          	mov    rdx,QWORD PTR [r15+0x10]
    8a58:	4c 89 f7             	mov    rdi,r14
    8a5b:	ff 15 67 21 24 00    	call   QWORD PTR [rip+0x242167]        # 24abc8 <__cxa_finalize@plt+0x2458d8>
    8a61:	48 89 d8             	mov    rax,rbx
    8a64:	48 8d 83 88 ff ff ff 	lea    rax,[rbx-0x78]
    8a6b:	5b                   	pop    rbx
    8a6c:	41 5e                	pop    r14
    8a6e:	41 5f                	pop    r15
    8a70:	c3                   	ret
    8a71:	48 89 c3             	mov    rbx,rax
    8a74:	4c 89 f7             	mov    rdi,r14
    8a77:	4c 89 fe             	mov    rsi,r15
    8a7a:	e8 81 dd 00 00       	call   16800 <__cxa_finalize@plt+0x11510>
    8a7f:	48 89 df             	mov    rdi,rbx
    8a82:	e8 59 c8 ff ff       	call   52e0 <_Unwind_Resume@plt>
    8a87:	0f 0b                	ud2
    8a89:	0f 1f 80 00 00 00 00 	nop    DWORD PTR [rax+0x0]
    8a90:	41 56                	push   r14
    8a92:	53                   	push   rbx
    8a93:	50                   	push   rax
    8a94:	48 89 f3             	mov    rbx,rsi
    8a97:	4c 8b 37             	mov    r14,QWORD PTR [rdi]
    8a9a:	48 89 f7             	mov    rdi,rsi
    8a9d:	ff 15 ed 22 24 00    	call   QWORD PTR [rip+0x2422ed]        # 24ad90 <__cxa_finalize@plt+0x245aa0>
    8aa3:	84 c0                	test   al,al
    8aa5:	74 13                	je     8aba <__cxa_finalize@plt+0x37ca>
    8aa7:	4c 89 f7             	mov    rdi,r14
    8aaa:	48 89 de             	mov    rsi,rbx
    8aad:	48 83 c4 08          	add    rsp,0x8
    8ab1:	5b                   	pop    rbx
    8ab2:	41 5e                	pop    r14
    8ab4:	ff 25 5e 20 24 00    	jmp    QWORD PTR [rip+0x24205e]        # 24ab18 <__cxa_finalize@plt+0x245828>
    8aba:	48 89 df             	mov    rdi,rbx
    8abd:	ff 15 d5 1f 24 00    	call   QWORD PTR [rip+0x241fd5]        # 24aa98 <__cxa_finalize@plt+0x2457a8>
    8ac3:	4c 89 f7             	mov    rdi,r14
    8ac6:	48 89 de             	mov    rsi,rbx
    8ac9:	48 83 c4 08          	add    rsp,0x8
    8acd:	84 c0                	test   al,al
    8acf:	74 09                	je     8ada <__cxa_finalize@plt+0x37ea>
    8ad1:	5b                   	pop    rbx
    8ad2:	41 5e                	pop    r14
    8ad4:	ff 25 46 1f 24 00    	jmp    QWORD PTR [rip+0x241f46]        # 24aa20 <__cxa_finalize@plt+0x245730>
    8ada:	5b                   	pop    rbx
    8adb:	41 5e                	pop    r14
    8add:	ff 25 a5 23 24 00    	jmp    QWORD PTR [rip+0x2423a5]        # 24ae88 <__cxa_finalize@plt+0x245b98>
    8ae3:	66 2e 0f 1f 84 00 00 	cs nop WORD PTR [rax+rax*1+0x0]
    8aea:	00 00 00 
    8aed:	0f 1f 00             	nop    DWORD PTR [rax]
    8af0:	41 56                	push   r14
    8af2:	53                   	push   rbx
    8af3:	50                   	push   rax
    8af4:	48 89 f3             	mov    rbx,rsi
    8af7:	4c 8b 37             	mov    r14,QWORD PTR [rdi]
    8afa:	48 89 f7             	mov    rdi,rsi
    8afd:	ff 15 8d 22 24 00    	call   QWORD PTR [rip+0x24228d]        # 24ad90 <__cxa_finalize@plt+0x245aa0>
    8b03:	84 c0                	test   al,al
    8b05:	74 13                	je     8b1a <__cxa_finalize@plt+0x382a>
    8b07:	4c 89 f7             	mov    rdi,r14
    8b0a:	48 89 de             	mov    rsi,rbx
    8b0d:	48 83 c4 08          	add    rsp,0x8
    8b11:	5b                   	pop    rbx
    8b12:	41 5e                	pop    r14
    8b14:	ff 25 76 20 24 00    	jmp    QWORD PTR [rip+0x242076]        # 24ab90 <__cxa_finalize@plt+0x2458a0>
    8b1a:	48 89 df             	mov    rdi,rbx
    8b1d:	ff 15 75 1f 24 00    	call   QWORD PTR [rip+0x241f75]        # 24aa98 <__cxa_finalize@plt+0x2457a8>
    8b23:	4c 89 f7             	mov    rdi,r14
    8b26:	48 89 de             	mov    rsi,rbx
    8b29:	48 83 c4 08          	add    rsp,0x8
    8b2d:	84 c0                	test   al,al
    8b2f:	74 09                	je     8b3a <__cxa_finalize@plt+0x384a>
    8b31:	5b                   	pop    rbx
    8b32:	41 5e                	pop    r14
    8b34:	ff 25 ee 20 24 00    	jmp    QWORD PTR [rip+0x2420ee]        # 24ac28 <__cxa_finalize@plt+0x245938>
    8b3a:	5b                   	pop    rbx
    8b3b:	41 5e                	pop    r14
    8b3d:	ff 25 e5 23 24 00    	jmp    QWORD PTR [rip+0x2423e5]        # 24af28 <__cxa_finalize@plt+0x245c38>
    8b43:	66 2e 0f 1f 84 00 00 	cs nop WORD PTR [rax+rax*1+0x0]
    8b4a:	00 00 00 
    8b4d:	0f 1f 00             	nop    DWORD PTR [rax]
    8b50:	41 56                	push   r14
    8b52:	53                   	push   rbx
    8b53:	50                   	push   rax
    8b54:	48 89 f3             	mov    rbx,rsi
    8b57:	4c 8b 37             	mov    r14,QWORD PTR [rdi]
    8b5a:	48 89 f7             	mov    rdi,rsi
    8b5d:	ff 15 2d 22 24 00    	call   QWORD PTR [rip+0x24222d]        # 24ad90 <__cxa_finalize@plt+0x245aa0>
    8b63:	84 c0                	test   al,al
    8b65:	74 13                	je     8b7a <__cxa_finalize@plt+0x388a>
    8b67:	4c 89 f7             	mov    rdi,r14
    8b6a:	48 89 de             	mov    rsi,rbx
    8b6d:	48 83 c4 08          	add    rsp,0x8
    8b71:	5b                   	pop    rbx
    8b72:	41 5e                	pop    r14
    8b74:	ff 25 4e 21 24 00    	jmp    QWORD PTR [rip+0x24214e]        # 24acc8 <__cxa_finalize@plt+0x2459d8>
    8b7a:	48 89 df             	mov    rdi,rbx
    8b7d:	ff 15 15 1f 24 00    	call   QWORD PTR [rip+0x241f15]        # 24aa98 <__cxa_finalize@plt+0x2457a8>
    8b83:	4c 89 f7             	mov    rdi,r14
    8b86:	48 89 de             	mov    rsi,rbx
    8b89:	48 83 c4 08          	add    rsp,0x8
    8b8d:	84 c0                	test   al,al
    8b8f:	74 09                	je     8b9a <__cxa_finalize@plt+0x38aa>
    8b91:	5b                   	pop    rbx
    8b92:	41 5e                	pop    r14
    8b94:	ff 25 3e 20 24 00    	jmp    QWORD PTR [rip+0x24203e]        # 24abd8 <__cxa_finalize@plt+0x2458e8>
    8b9a:	5b                   	pop    rbx
    8b9b:	41 5e                	pop    r14
    8b9d:	ff 25 b5 20 24 00    	jmp    QWORD PTR [rip+0x2420b5]        # 24ac58 <__cxa_finalize@plt+0x245968>
    8ba3:	66 2e 0f 1f 84 00 00 	cs nop WORD PTR [rax+rax*1+0x0]
    8baa:	00 00 00 
    8bad:	0f 1f 00             	nop    DWORD PTR [rax]
    8bb0:	48 89 f2             	mov    rdx,rsi
    8bb3:	48 8b 07             	mov    rax,QWORD PTR [rdi]
    8bb6:	48 8b 77 08          	mov    rsi,QWORD PTR [rdi+0x8]
    8bba:	48 89 c7             	mov    rdi,rax
    8bbd:	ff 25 85 21 24 00    	jmp    QWORD PTR [rip+0x242185]        # 24ad48 <__cxa_finalize@plt+0x245a58>
    8bc3:	66 2e 0f 1f 84 00 00 	cs nop WORD PTR [rax+rax*1+0x0]
    8bca:	00 00 00 
    8bcd:	0f 1f 00             	nop    DWORD PTR [rax]
    8bd0:	48 8b 3f             	mov    rdi,QWORD PTR [rdi]
    8bd3:	ff 25 47 1e 24 00    	jmp    QWORD PTR [rip+0x241e47]        # 24aa20 <__cxa_finalize@plt+0x245730>
    8bd9:	0f 1f 80 00 00 00 00 	nop    DWORD PTR [rax+0x0]
    8be0:	b1 10                	mov    cl,0x10
    8be2:	83 c7 ff             	add    edi,0xffffffff
    8be5:	83 ff 6e             	cmp    edi,0x6e
    8be8:	77 1d                	ja     8c07 <__cxa_finalize@plt+0x3917>
    8bea:	b0 02                	mov    al,0x2
    8bec:	48 8d 15 9d 14 03 00 	lea    rdx,[rip+0x3149d]        # 3a090 <__cxa_finalize@plt+0x34da0>
    8bf3:	48 63 34 ba          	movsxd rsi,DWORD PTR [rdx+rdi*4]
    8bf7:	48 01 d6             	add    rsi,rdx
    8bfa:	ff e6                	jmp    rsi
    8bfc:	b0 01                	mov    al,0x1
    8bfe:	c3                   	ret
    8bff:	31 c0                	xor    eax,eax
    8c01:	c3                   	ret
    8c02:	b0 0f                	mov    al,0xf
    8c04:	c3                   	ret
    8c05:	b1 0a                	mov    cl,0xa
    8c07:	89 c8                	mov    eax,ecx
    8c09:	c3                   	ret
    8c0a:	b0 09                	mov    al,0x9
    8c0c:	c3                   	ret
    8c0d:	b0 0b                	mov    al,0xb
    8c0f:	c3                   	ret
    8c10:	b0 06                	mov    al,0x6
    8c12:	c3                   	ret
    8c13:	b0 07                	mov    al,0x7
    8c15:	c3                   	ret
    8c16:	b0 04                	mov    al,0x4
    8c18:	c3                   	ret
    8c19:	b0 03                	mov    al,0x3
    8c1b:	c3                   	ret
    8c1c:	b0 05                	mov    al,0x5
    8c1e:	c3                   	ret
    8c1f:	b0 0d                	mov    al,0xd
    8c21:	c3                   	ret
    8c22:	b0 08                	mov    al,0x8
    8c24:	c3                   	ret
    8c25:	66 2e 0f 1f 84 00 00 	cs nop WORD PTR [rax+rax*1+0x0]
    8c2c:	00 00 00 
    8c2f:	90                   	nop
    8c30:	50                   	push   rax
    8c31:	ff 15 41 1e 24 00    	call   QWORD PTR [rip+0x241e41]        # 24aa78 <__cxa_finalize@plt+0x245788>
    8c37:	0f 0b                	ud2
    8c39:	0f 1f 80 00 00 00 00 	nop    DWORD PTR [rax+0x0]
    8c40:	48 b8 b1 62 b8 e1 5c 	movabs rax,0x6b1d435ce1b862b1
    8c47:	43 1d 6b 
    8c4a:	c3                   	ret
    8c4b:	0f 1f 44 00 00       	nop    DWORD PTR [rax+rax*1+0x0]
    8c50:	48 b8 f4 bc c7 ec 1e 	movabs rax,0x7ef2a91eecc7bcf4
    8c57:	a9 f2 7e 
    8c5a:	c3                   	ret
    8c5b:	0f 1f 44 00 00       	nop    DWORD PTR [rax+rax*1+0x0]
    8c60:	48 8b 3f             	mov    rdi,QWORD PTR [rdi]
    8c63:	ff 25 07 1f 24 00    	jmp    QWORD PTR [rip+0x241f07]        # 24ab70 <__cxa_finalize@plt+0x245880>
    8c69:	0f 1f 80 00 00 00 00 	nop    DWORD PTR [rax+0x0]
    8c70:	41 57                	push   r15
    8c72:	41 56                	push   r14
    8c74:	41 55                	push   r13
    8c76:	41 54                	push   r12
    8c78:	53                   	push   rbx
    8c79:	49 89 fe             	mov    r14,rdi
    8c7c:	48 8b 47 10          	mov    rax,QWORD PTR [rdi+0x10]
    8c80:	48 85 c0             	test   rax,rax
    8c83:	74 4b                	je     8cd0 <__cxa_finalize@plt+0x39e0>
    8c85:	4d 8b 26             	mov    r12,QWORD PTR [r14]
    8c88:	4c 6b f8 70          	imul   r15,rax,0x70
    8c8c:	31 db                	xor    ebx,ebx
    8c8e:	4c 8d 2d 1b e1 ff ff 	lea    r13,[rip+0xffffffffffffe11b]        # 6db0 <__cxa_finalize@plt+0x1ac0>
    8c95:	eb 12                	jmp    8ca9 <__cxa_finalize@plt+0x39b9>
    8c97:	66 0f 1f 84 00 00 00 	nop    WORD PTR [rax+rax*1+0x0]
    8c9e:	00 00 
    8ca0:	48 83 c3 70          	add    rbx,0x70
    8ca4:	49 39 df             	cmp    r15,rbx
    8ca7:	74 27                	je     8cd0 <__cxa_finalize@plt+0x39e0>
    8ca9:	49 83 7c 1c 08 00    	cmp    QWORD PTR [r12+rbx*1+0x8],0x0
    8caf:	74 ef                	je     8ca0 <__cxa_finalize@plt+0x39b0>
    8cb1:	49 8b 74 1c 18       	mov    rsi,QWORD PTR [r12+rbx*1+0x18]
    8cb6:	48 85 f6             	test   rsi,rsi
    8cb9:	74 e5                	je     8ca0 <__cxa_finalize@plt+0x39b0>
    8cbb:	48 c1 e6 04          	shl    rsi,0x4
    8cbf:	74 df                	je     8ca0 <__cxa_finalize@plt+0x39b0>
    8cc1:	49 8b 7c 1c 10       	mov    rdi,QWORD PTR [r12+rbx*1+0x10]
    8cc6:	ba 08 00 00 00       	mov    edx,0x8
    8ccb:	41 ff d5             	call   r13
    8cce:	eb d0                	jmp    8ca0 <__cxa_finalize@plt+0x39b0>
    8cd0:	49 8b 46 08          	mov    rax,QWORD PTR [r14+0x8]
    8cd4:	48 85 c0             	test   rax,rax
    8cd7:	74 17                	je     8cf0 <__cxa_finalize@plt+0x3a00>
    8cd9:	48 6b f0 70          	imul   rsi,rax,0x70
    8cdd:	48 85 f6             	test   rsi,rsi
    8ce0:	74 0e                	je     8cf0 <__cxa_finalize@plt+0x3a00>
    8ce2:	49 8b 3e             	mov    rdi,QWORD PTR [r14]
    8ce5:	ba 08 00 00 00       	mov    edx,0x8
    8cea:	ff 15 d8 1e 24 00    	call   QWORD PTR [rip+0x241ed8]        # 24abc8 <__cxa_finalize@plt+0x2458d8>
    8cf0:	49 83 c6 18          	add    r14,0x18
    8cf4:	4c 89 f7             	mov    rdi,r14
    8cf7:	5b                   	pop    rbx
    8cf8:	41 5c                	pop    r12
    8cfa:	41 5d                	pop    r13
    8cfc:	41 5e                	pop    r14
    8cfe:	41 5f                	pop    r15
    8d00:	e9 ab 8b 00 00       	jmp    118b0 <__cxa_finalize@plt+0xc5c0>
    8d05:	66 2e 0f 1f 84 00 00 	cs nop WORD PTR [rax+rax*1+0x0]
    8d0c:	00 00 00 
    8d0f:	90                   	nop
    8d10:	48 83 3f 00          	cmp    QWORD PTR [rdi],0x0
    8d14:	74 1e                	je     8d34 <__cxa_finalize@plt+0x3a44>
    8d16:	48 8b 77 10          	mov    rsi,QWORD PTR [rdi+0x10]
    8d1a:	48 85 f6             	test   rsi,rsi
    8d1d:	74 15                	je     8d34 <__cxa_finalize@plt+0x3a44>
    8d1f:	48 c1 e6 04          	shl    rsi,0x4
    8d23:	74 0f                	je     8d34 <__cxa_finalize@plt+0x3a44>
    8d25:	48 8b 7f 08          	mov    rdi,QWORD PTR [rdi+0x8]
    8d29:	ba 08 00 00 00       	mov    edx,0x8
    8d2e:	ff 25 94 1e 24 00    	jmp    QWORD PTR [rip+0x241e94]        # 24abc8 <__cxa_finalize@plt+0x2458d8>
    8d34:	c3                   	ret
    8d35:	66 2e 0f 1f 84 00 00 	cs nop WORD PTR [rax+rax*1+0x0]
    8d3c:	00 00 00 
    8d3f:	90                   	nop
    8d40:	55                   	push   rbp
    8d41:	41 57                	push   r15
    8d43:	41 56                	push   r14
    8d45:	41 55                	push   r13
    8d47:	41 54                	push   r12
    8d49:	53                   	push   rbx
    8d4a:	48 81 ec 18 03 00 00 	sub    rsp,0x318
    8d51:	49 89 ff             	mov    r15,rdi
    8d54:	48 8b 06             	mov    rax,QWORD PTR [rsi]
    8d57:	48 8b 4e 08          	mov    rcx,QWORD PTR [rsi+0x8]
    8d5b:	48 89 44 24 20       	mov    QWORD PTR [rsp+0x20],rax
    8d60:	48 89 4c 24 28       	mov    QWORD PTR [rsp+0x28],rcx
    8d65:	48 29 d1             	sub    rcx,rdx
    8d68:	73 41                	jae    8dab <__cxa_finalize@plt+0x3abb>
    8d6a:	8b 4c 24 50          	mov    ecx,DWORD PTR [rsp+0x50]
    8d6e:	8b 54 24 53          	mov    edx,DWORD PTR [rsp+0x53]
    8d72:	89 94 24 03 02 00 00 	mov    DWORD PTR [rsp+0x203],edx
    8d79:	89 8c 24 00 02 00 00 	mov    DWORD PTR [rsp+0x200],ecx
    8d80:	41 c6 47 08 13       	mov    BYTE PTR [r15+0x8],0x13
    8d85:	8b 8c 24 00 02 00 00 	mov    ecx,DWORD PTR [rsp+0x200]
    8d8c:	8b 94 24 03 02 00 00 	mov    edx,DWORD PTR [rsp+0x203]
    8d93:	41 89 4f 09          	mov    DWORD PTR [r15+0x9],ecx
    8d97:	41 89 57 0c          	mov    DWORD PTR [r15+0xc],edx
    8d9b:	49 89 47 10          	mov    QWORD PTR [r15+0x10],rax
    8d9f:	49 c7 07 01 00 00 00 	mov    QWORD PTR [r15],0x1
    8da6:	e9 ae 05 00 00       	jmp    9359 <__cxa_finalize@plt+0x4069>
    8dab:	48 01 d0             	add    rax,rdx
    8dae:	48 89 44 24 20       	mov    QWORD PTR [rsp+0x20],rax
    8db3:	48 89 4c 24 28       	mov    QWORD PTR [rsp+0x28],rcx
    8db8:	48 8d bc 24 c0 00 00 	lea    rdi,[rsp+0xc0]
    8dbf:	00 
    8dc0:	ff 15 ea 21 24 00    	call   QWORD PTR [rip+0x2421ea]        # 24afb0 <__cxa_finalize@plt+0x245cc0>
    8dc6:	4c 8d 64 24 60       	lea    r12,[rsp+0x60]
    8dcb:	48 8d 6c 24 50       	lea    rbp,[rsp+0x50]
    8dd0:	48 8d 74 24 20       	lea    rsi,[rsp+0x20]
    8dd5:	48 89 ef             	mov    rdi,rbp
    8dd8:	e8 03 ad 01 00       	call   23ae0 <__cxa_finalize@plt+0x1e7f0>
    8ddd:	48 8b 44 24 58       	mov    rax,QWORD PTR [rsp+0x58]
    8de2:	48 8b 5c 24 60       	mov    rbx,QWORD PTR [rsp+0x60]
    8de7:	48 83 7c 24 50 01    	cmp    QWORD PTR [rsp+0x50],0x1
    8ded:	0f 84 b7 05 00 00    	je     93aa <__cxa_finalize@plt+0x40ba>
    8df3:	48 89 44 24 48       	mov    QWORD PTR [rsp+0x48],rax
    8df8:	48 85 c0             	test   rax,rax
    8dfb:	0f 84 8f 00 00 00    	je     8e90 <__cxa_finalize@plt+0x3ba0>
    8e01:	48 89 ef             	mov    rdi,rbp
    8e04:	48 8d 74 24 20       	lea    rsi,[rsp+0x20]
    8e09:	e8 d2 ab 01 00       	call   239e0 <__cxa_finalize@plt+0x1e6f0>
    8e0e:	4c 89 e6             	mov    rsi,r12
    8e11:	0f b6 54 24 5f       	movzx  edx,BYTE PTR [rsp+0x5f]
    8e16:	0f b7 4c 24 5d       	movzx  ecx,WORD PTR [rsp+0x5d]
    8e1b:	8b 44 24 59          	mov    eax,DWORD PTR [rsp+0x59]
    8e1f:	4c 8b 64 24 60       	mov    r12,QWORD PTR [rsp+0x60]
    8e24:	66 83 7c 24 50 01    	cmp    WORD PTR [rsp+0x50],0x1
    8e2a:	0f 84 85 05 00 00    	je     93b5 <__cxa_finalize@plt+0x40c5>
    8e30:	0f b7 7c 24 52       	movzx  edi,WORD PTR [rsp+0x52]
    8e35:	66 85 ff             	test   di,di
    8e38:	0f 84 7d 05 00 00    	je     93bb <__cxa_finalize@plt+0x40cb>
    8e3e:	48 8b 44 24 28       	mov    rax,QWORD PTR [rsp+0x28]
    8e43:	48 85 c0             	test   rax,rax
    8e46:	0f 84 8d 05 00 00    	je     93d9 <__cxa_finalize@plt+0x40e9>
    8e4c:	48 8b 4c 24 20       	mov    rcx,QWORD PTR [rsp+0x20]
    8e51:	48 8d 51 01          	lea    rdx,[rcx+0x1]
    8e55:	48 83 c0 ff          	add    rax,0xffffffffffffffff
    8e59:	48 89 54 24 20       	mov    QWORD PTR [rsp+0x20],rdx
    8e5e:	48 89 44 24 28       	mov    QWORD PTR [rsp+0x28],rax
    8e63:	8a 01                	mov    al,BYTE PTR [rcx]
    8e65:	84 c0                	test   al,al
    8e67:	0f 84 43 01 00 00    	je     8fb0 <__cxa_finalize@plt+0x3cc0>
    8e6d:	3c 01                	cmp    al,0x1
    8e6f:	48 8d 6c 24 50       	lea    rbp,[rsp+0x50]
    8e74:	0f 85 6f 05 00 00    	jne    93e9 <__cxa_finalize@plt+0x40f9>
    8e7a:	49 89 f4             	mov    r12,rsi
    8e7d:	c6 44 24 07 01       	mov    BYTE PTR [rsp+0x7],0x1
    8e82:	e9 35 01 00 00       	jmp    8fbc <__cxa_finalize@plt+0x3ccc>
    8e87:	66 0f 1f 84 00 00 00 	nop    WORD PTR [rax+rax*1+0x0]
    8e8e:	00 00 
    8e90:	b8 02 00 00 00       	mov    eax,0x2
    8e95:	0f 28 84 24 a0 01 00 	movaps xmm0,XMMWORD PTR [rsp+0x1a0]
    8e9c:	00 
    8e9d:	0f 29 84 24 b0 02 00 	movaps XMMWORD PTR [rsp+0x2b0],xmm0
    8ea4:	00 
    8ea5:	0f 28 8c 24 90 01 00 	movaps xmm1,XMMWORD PTR [rsp+0x190]
    8eac:	00 
    8ead:	0f 29 8c 24 a0 02 00 	movaps XMMWORD PTR [rsp+0x2a0],xmm1
    8eb4:	00 
    8eb5:	0f 28 94 24 50 01 00 	movaps xmm2,XMMWORD PTR [rsp+0x150]
    8ebc:	00 
    8ebd:	0f 28 9c 24 60 01 00 	movaps xmm3,XMMWORD PTR [rsp+0x160]
    8ec4:	00 
    8ec5:	0f 28 a4 24 70 01 00 	movaps xmm4,XMMWORD PTR [rsp+0x170]
    8ecc:	00 
    8ecd:	0f 28 ac 24 80 01 00 	movaps xmm5,XMMWORD PTR [rsp+0x180]
    8ed4:	00 
    8ed5:	0f 29 ac 24 90 02 00 	movaps XMMWORD PTR [rsp+0x290],xmm5
    8edc:	00 
    8edd:	0f 29 a4 24 80 02 00 	movaps XMMWORD PTR [rsp+0x280],xmm4
    8ee4:	00 
    8ee5:	0f 29 9c 24 70 02 00 	movaps XMMWORD PTR [rsp+0x270],xmm3
    8eec:	00 
    8eed:	0f 29 94 24 60 02 00 	movaps XMMWORD PTR [rsp+0x260],xmm2
    8ef4:	00 
    8ef5:	0f 29 94 24 f0 00 00 	movaps XMMWORD PTR [rsp+0xf0],xmm2
    8efc:	00 
    8efd:	0f 29 9c 24 00 01 00 	movaps XMMWORD PTR [rsp+0x100],xmm3
    8f04:	00 
    8f05:	0f 29 a4 24 10 01 00 	movaps XMMWORD PTR [rsp+0x110],xmm4
    8f0c:	00 
    8f0d:	0f 29 ac 24 20 01 00 	movaps XMMWORD PTR [rsp+0x120],xmm5
    8f14:	00 
    8f15:	0f 29 8c 24 30 01 00 	movaps XMMWORD PTR [rsp+0x130],xmm1
    8f1c:	00 
    8f1d:	0f 29 84 24 40 01 00 	movaps XMMWORD PTR [rsp+0x140],xmm0
    8f24:	00 
    8f25:	48 83 f8 02          	cmp    rax,0x2
    8f29:	0f 84 c8 04 00 00    	je     93f7 <__cxa_finalize@plt+0x4107>
    8f2f:	4c 89 74 24 50       	mov    QWORD PTR [rsp+0x50],r14
    8f34:	48 89 44 24 58       	mov    QWORD PTR [rsp+0x58],rax
    8f39:	0f 28 84 24 40 01 00 	movaps xmm0,XMMWORD PTR [rsp+0x140]
    8f40:	00 
    8f41:	41 0f 11 44 24 50    	movups XMMWORD PTR [r12+0x50],xmm0
    8f47:	0f 28 84 24 30 01 00 	movaps xmm0,XMMWORD PTR [rsp+0x130]
    8f4e:	00 
    8f4f:	41 0f 11 44 24 40    	movups XMMWORD PTR [r12+0x40],xmm0
    8f55:	0f 28 84 24 f0 00 00 	movaps xmm0,XMMWORD PTR [rsp+0xf0]
    8f5c:	00 
    8f5d:	0f 28 8c 24 00 01 00 	movaps xmm1,XMMWORD PTR [rsp+0x100]
    8f64:	00 
    8f65:	0f 28 94 24 10 01 00 	movaps xmm2,XMMWORD PTR [rsp+0x110]
    8f6c:	00 
    8f6d:	0f 28 9c 24 20 01 00 	movaps xmm3,XMMWORD PTR [rsp+0x120]
    8f74:	00 
    8f75:	41 0f 11 5c 24 30    	movups XMMWORD PTR [r12+0x30],xmm3
    8f7b:	41 0f 11 54 24 20    	movups XMMWORD PTR [r12+0x20],xmm2
    8f81:	41 0f 11 4c 24 10    	movups XMMWORD PTR [r12+0x10],xmm1
    8f87:	41 0f 11 04 24       	movups XMMWORD PTR [r12],xmm0
    8f8c:	48 8d bc 24 c0 00 00 	lea    rdi,[rsp+0xc0]
    8f93:	00 
    8f94:	48 89 ee             	mov    rsi,rbp
    8f97:	ff 15 e3 1e 24 00    	call   QWORD PTR [rip+0x241ee3]        # 24ae80 <__cxa_finalize@plt+0x245b90>
    8f9d:	84 c0                	test   al,al
    8f9f:	0f 85 85 04 00 00    	jne    942a <__cxa_finalize@plt+0x413a>
    8fa5:	48 8d 74 24 20       	lea    rsi,[rsp+0x20]
    8faa:	e9 26 fe ff ff       	jmp    8dd5 <__cxa_finalize@plt+0x3ae5>
    8faf:	90                   	nop
    8fb0:	88 44 24 07          	mov    BYTE PTR [rsp+0x7],al
    8fb4:	48 8d 6c 24 50       	lea    rbp,[rsp+0x50]
    8fb9:	49 89 f4             	mov    r12,rsi
    8fbc:	89 7c 24 34          	mov    DWORD PTR [rsp+0x34],edi
    8fc0:	48 89 ef             	mov    rdi,rbp
    8fc3:	ff 15 d7 1b 24 00    	call   QWORD PTR [rip+0x241bd7]        # 24aba0 <__cxa_finalize@plt+0x2458b0>
    8fc9:	4c 89 7c 24 38       	mov    QWORD PTR [rsp+0x38],r15
    8fce:	48 8d 7c 24 08       	lea    rdi,[rsp+0x8]
    8fd3:	48 8d 74 24 20       	lea    rsi,[rsp+0x20]
    8fd8:	e8 03 aa 01 00       	call   239e0 <__cxa_finalize@plt+0x1e6f0>
    8fdd:	66 83 7c 24 08 01    	cmp    WORD PTR [rsp+0x8],0x1
    8fe3:	0f 84 85 03 00 00    	je     936e <__cxa_finalize@plt+0x407e>
    8fe9:	44 0f b7 6c 24 0a    	movzx  r13d,WORD PTR [rsp+0xa]
    8fef:	66 45 85 ed          	test   r13w,r13w
    8ff3:	0f 84 13 01 00 00    	je     910c <__cxa_finalize@plt+0x3e1c>
    8ff9:	48 8d 7c 24 08       	lea    rdi,[rsp+0x8]
    8ffe:	48 8d 74 24 20       	lea    rsi,[rsp+0x20]
    9003:	e8 d8 a9 01 00       	call   239e0 <__cxa_finalize@plt+0x1e6f0>
    9008:	4c 89 e2             	mov    rdx,r12
    900b:	0f b6 4c 24 17       	movzx  ecx,BYTE PTR [rsp+0x17]
    9010:	0f b7 44 24 15       	movzx  eax,WORD PTR [rsp+0x15]
    9015:	8b 6c 24 11          	mov    ebp,DWORD PTR [rsp+0x11]
    9019:	4c 8b 64 24 18       	mov    r12,QWORD PTR [rsp+0x18]
    901e:	66 83 7c 24 08 01    	cmp    WORD PTR [rsp+0x8],0x1
    9024:	0f 84 5d 03 00 00    	je     9387 <__cxa_finalize@plt+0x4097>
    902a:	0f b7 5c 24 0a       	movzx  ebx,WORD PTR [rsp+0xa]
    902f:	66 83 fb 21          	cmp    bx,0x21
    9033:	74 1b                	je     9050 <__cxa_finalize@plt+0x3d60>
    9035:	66 85 db             	test   bx,bx
    9038:	0f 84 4f 03 00 00    	je     938d <__cxa_finalize@plt+0x409d>
    903e:	45 31 f6             	xor    r14d,r14d
    9041:	49 89 d4             	mov    r12,rdx
    9044:	e9 9b 00 00 00       	jmp    90e4 <__cxa_finalize@plt+0x3df4>
    9049:	0f 1f 80 00 00 00 00 	nop    DWORD PTR [rax+0x0]
    9050:	45 31 ff             	xor    r15d,r15d
    9053:	45 31 f6             	xor    r14d,r14d
    9056:	48 8d 6c 24 20       	lea    rbp,[rsp+0x20]
    905b:	eb 19                	jmp    9076 <__cxa_finalize@plt+0x3d86>
    905d:	0f 1f 00             	nop    DWORD PTR [rax]
    9060:	89 c2                	mov    edx,eax
    9062:	83 e2 7f             	and    edx,0x7f
    9065:	44 89 f9             	mov    ecx,r15d
    9068:	48 d3 e2             	shl    rdx,cl
    906b:	49 09 d6             	or     r14,rdx
    906e:	41 83 c7 07          	add    r15d,0x7
    9072:	84 c0                	test   al,al
    9074:	79 35                	jns    90ab <__cxa_finalize@plt+0x3dbb>
    9076:	48 8d 7c 24 08       	lea    rdi,[rsp+0x8]
    907b:	48 89 ee             	mov    rsi,rbp
    907e:	e8 0d a9 01 00       	call   23990 <__cxa_finalize@plt+0x1e6a0>
    9083:	4c 8b 64 24 18       	mov    r12,QWORD PTR [rsp+0x18]
    9088:	80 7c 24 08 01       	cmp    BYTE PTR [rsp+0x8],0x1
    908d:	0f 84 ce 01 00 00    	je     9261 <__cxa_finalize@plt+0x3f71>
    9093:	0f b6 44 24 09       	movzx  eax,BYTE PTR [rsp+0x9]
    9098:	41 83 ff 3f          	cmp    r15d,0x3f
    909c:	75 c2                	jne    9060 <__cxa_finalize@plt+0x3d70>
    909e:	84 c0                	test   al,al
    90a0:	74 be                	je     9060 <__cxa_finalize@plt+0x3d70>
    90a2:	3c 7f                	cmp    al,0x7f
    90a4:	74 ba                	je     9060 <__cxa_finalize@plt+0x3d70>
    90a6:	e9 c7 01 00 00       	jmp    9272 <__cxa_finalize@plt+0x3f82>
    90ab:	48 c7 c2 ff ff ff ff 	mov    rdx,0xffffffffffffffff
    90b2:	44 89 f9             	mov    ecx,r15d
    90b5:	48 d3 e2             	shl    rdx,cl
    90b8:	a8 40                	test   al,0x40
    90ba:	b8 00 00 00 00       	mov    eax,0x0
    90bf:	48 0f 44 d0          	cmove  rdx,rax
    90c3:	41 83 ff 40          	cmp    r15d,0x40
    90c7:	48 0f 4d d0          	cmovge rdx,rax
    90cb:	49 09 d6             	or     r14,rdx
    90ce:	4c 89 f0             	mov    rax,r14
    90d1:	48 c1 e8 08          	shr    rax,0x8
    90d5:	48 89 44 24 40       	mov    QWORD PTR [rsp+0x40],rax
    90da:	4c 8b 7c 24 38       	mov    r15,QWORD PTR [rsp+0x38]
    90df:	4c 8d 64 24 60       	lea    r12,[rsp+0x60]
    90e4:	4c 89 74 24 08       	mov    QWORD PTR [rsp+0x8],r14
    90e9:	66 44 89 6c 24 10    	mov    WORD PTR [rsp+0x10],r13w
    90ef:	66 89 5c 24 12       	mov    WORD PTR [rsp+0x12],bx
    90f4:	48 8d 6c 24 50       	lea    rbp,[rsp+0x50]
    90f9:	48 89 ef             	mov    rdi,rbp
    90fc:	48 8d 74 24 08       	lea    rsi,[rsp+0x8]
    9101:	ff 15 59 1e 24 00    	call   QWORD PTR [rip+0x241e59]        # 24af60 <__cxa_finalize@plt+0x245c70>
    9107:	e9 c2 fe ff ff       	jmp    8fce <__cxa_finalize@plt+0x3cde>
    910c:	48 8d 7c 24 08       	lea    rdi,[rsp+0x8]
    9111:	48 8d 74 24 20       	lea    rsi,[rsp+0x20]
    9116:	e8 c5 a8 01 00       	call   239e0 <__cxa_finalize@plt+0x1e6f0>
    911b:	66 83 7c 24 08 01    	cmp    WORD PTR [rsp+0x8],0x1
    9121:	0f 84 47 02 00 00    	je     936e <__cxa_finalize@plt+0x407e>
    9127:	66 83 7c 24 0a 00    	cmp    WORD PTR [rsp+0xa],0x0
    912d:	0f 85 01 03 00 00    	jne    9434 <__cxa_finalize@plt+0x4144>
    9133:	0f 28 44 24 50       	movaps xmm0,XMMWORD PTR [rsp+0x50]
    9138:	41 0f 10 4c 24 40    	movups xmm1,XMMWORD PTR [r12+0x40]
    913e:	41 0f 10 14 24       	movups xmm2,XMMWORD PTR [r12]
    9143:	41 0f 10 5c 24 10    	movups xmm3,XMMWORD PTR [r12+0x10]
    9149:	41 0f 10 64 24 20    	movups xmm4,XMMWORD PTR [r12+0x20]
    914f:	41 0f 10 6c 24 30    	movups xmm5,XMMWORD PTR [r12+0x30]
    9155:	0f 29 94 24 c0 02 00 	movaps XMMWORD PTR [rsp+0x2c0],xmm2
    915c:	00 
    915d:	0f 29 9c 24 d0 02 00 	movaps XMMWORD PTR [rsp+0x2d0],xmm3
    9164:	00 
    9165:	0f 29 a4 24 e0 02 00 	movaps XMMWORD PTR [rsp+0x2e0],xmm4
    916c:	00 
    916d:	0f 29 8c 24 f0 01 00 	movaps XMMWORD PTR [rsp+0x1f0],xmm1
    9174:	00 
    9175:	0f 29 ac 24 e0 01 00 	movaps XMMWORD PTR [rsp+0x1e0],xmm5
    917c:	00 
    917d:	0f 29 a4 24 d0 01 00 	movaps XMMWORD PTR [rsp+0x1d0],xmm4
    9184:	00 
    9185:	0f 29 9c 24 c0 01 00 	movaps XMMWORD PTR [rsp+0x1c0],xmm3
    918c:	00 
    918d:	0f 29 94 24 b0 01 00 	movaps XMMWORD PTR [rsp+0x1b0],xmm2
    9194:	00 
    9195:	0f 29 84 24 00 02 00 	movaps XMMWORD PTR [rsp+0x200],xmm0
    919c:	00 
    919d:	0f 28 84 24 f0 01 00 	movaps xmm0,XMMWORD PTR [rsp+0x1f0]
    91a4:	00 
    91a5:	48 8d 84 24 10 02 00 	lea    rax,[rsp+0x210]
    91ac:	00 
    91ad:	0f 11 40 40          	movups XMMWORD PTR [rax+0x40],xmm0
    91b1:	0f 28 84 24 b0 01 00 	movaps xmm0,XMMWORD PTR [rsp+0x1b0]
    91b8:	00 
    91b9:	0f 28 8c 24 c0 01 00 	movaps xmm1,XMMWORD PTR [rsp+0x1c0]
    91c0:	00 
    91c1:	0f 28 94 24 d0 01 00 	movaps xmm2,XMMWORD PTR [rsp+0x1d0]
    91c8:	00 
    91c9:	0f 28 9c 24 e0 01 00 	movaps xmm3,XMMWORD PTR [rsp+0x1e0]
    91d0:	00 
    91d1:	0f 11 58 30          	movups XMMWORD PTR [rax+0x30],xmm3
    91d5:	0f 11 50 20          	movups XMMWORD PTR [rax+0x20],xmm2
    91d9:	0f 11 48 10          	movups XMMWORD PTR [rax+0x10],xmm1
    91dd:	0f 11 00             	movups XMMWORD PTR [rax],xmm0
    91e0:	0f b6 4c 24 07       	movzx  ecx,BYTE PTR [rsp+0x7]
    91e5:	48 89 ef             	mov    rdi,rbp
    91e8:	48 8b 74 24 48       	mov    rsi,QWORD PTR [rsp+0x48]
    91ed:	8b 54 24 34          	mov    edx,DWORD PTR [rsp+0x34]
    91f1:	4c 8d 84 24 00 02 00 	lea    r8,[rsp+0x200]
    91f8:	00 
    91f9:	ff 15 11 1a 24 00    	call   QWORD PTR [rip+0x241a11]        # 24ac10 <__cxa_finalize@plt+0x245920>
    91ff:	4c 8b 74 24 50       	mov    r14,QWORD PTR [rsp+0x50]
    9204:	48 8b 44 24 58       	mov    rax,QWORD PTR [rsp+0x58]
    9209:	41 0f 10 04 24       	movups xmm0,XMMWORD PTR [r12]
    920e:	41 0f 10 4c 24 10    	movups xmm1,XMMWORD PTR [r12+0x10]
    9214:	41 0f 10 54 24 20    	movups xmm2,XMMWORD PTR [r12+0x20]
    921a:	41 0f 10 5c 24 30    	movups xmm3,XMMWORD PTR [r12+0x30]
    9220:	0f 29 84 24 50 01 00 	movaps XMMWORD PTR [rsp+0x150],xmm0
    9227:	00 
    9228:	0f 29 8c 24 60 01 00 	movaps XMMWORD PTR [rsp+0x160],xmm1
    922f:	00 
    9230:	0f 29 94 24 70 01 00 	movaps XMMWORD PTR [rsp+0x170],xmm2
    9237:	00 
    9238:	0f 29 9c 24 80 01 00 	movaps XMMWORD PTR [rsp+0x180],xmm3
    923f:	00 
    9240:	41 0f 10 44 24 40    	movups xmm0,XMMWORD PTR [r12+0x40]
    9246:	0f 29 84 24 90 01 00 	movaps XMMWORD PTR [rsp+0x190],xmm0
    924d:	00 
    924e:	41 0f 10 44 24 50    	movups xmm0,XMMWORD PTR [r12+0x50]
    9254:	0f 29 84 24 a0 01 00 	movaps XMMWORD PTR [rsp+0x1a0],xmm0
    925b:	00 
    925c:	e9 34 fc ff ff       	jmp    8e95 <__cxa_finalize@plt+0x3ba5>
    9261:	48 8b 4c 24 10       	mov    rcx,QWORD PTR [rsp+0x10]
    9266:	0f b6 c1             	movzx  eax,cl
    9269:	48 89 cd             	mov    rbp,rcx
    926c:	48 c1 ed 08          	shr    rbp,0x8
    9270:	eb 0a                	jmp    927c <__cxa_finalize@plt+0x3f8c>
    9272:	b8 07 00 00 00       	mov    eax,0x7
    9277:	48 8b 6c 24 40       	mov    rbp,QWORD PTR [rsp+0x40]
    927c:	48 c1 e5 08          	shl    rbp,0x8
    9280:	48 09 e8             	or     rax,rbp
    9283:	4c 8b 7c 24 38       	mov    r15,QWORD PTR [rsp+0x38]
    9288:	44 0f b6 f0          	movzx  r14d,al
    928c:	48 83 7c 24 50 00    	cmp    QWORD PTR [rsp+0x50],0x0
    9292:	74 20                	je     92b4 <__cxa_finalize@plt+0x3fc4>
    9294:	48 8b 74 24 60       	mov    rsi,QWORD PTR [rsp+0x60]
    9299:	48 85 f6             	test   rsi,rsi
    929c:	74 16                	je     92b4 <__cxa_finalize@plt+0x3fc4>
    929e:	48 c1 e6 04          	shl    rsi,0x4
    92a2:	74 10                	je     92b4 <__cxa_finalize@plt+0x3fc4>
    92a4:	48 8b 7c 24 58       	mov    rdi,QWORD PTR [rsp+0x58]
    92a9:	ba 08 00 00 00       	mov    edx,0x8
    92ae:	ff 15 14 19 24 00    	call   QWORD PTR [rip+0x241914]        # 24abc8 <__cxa_finalize@plt+0x2458d8>
    92b4:	49 09 ee             	or     r14,rbp
    92b7:	4d 89 77 08          	mov    QWORD PTR [r15+0x8],r14
    92bb:	4d 89 67 10          	mov    QWORD PTR [r15+0x10],r12
    92bf:	4d 89 fc             	mov    r12,r15
    92c2:	49 c7 07 01 00 00 00 	mov    QWORD PTR [r15],0x1
    92c9:	48 8b 84 24 d0 00 00 	mov    rax,QWORD PTR [rsp+0xd0]
    92d0:	00 
    92d1:	48 85 c0             	test   rax,rax
    92d4:	74 4a                	je     9320 <__cxa_finalize@plt+0x4030>
    92d6:	48 8b 9c 24 c0 00 00 	mov    rbx,QWORD PTR [rsp+0xc0]
    92dd:	00 
    92de:	4c 6b f0 70          	imul   r14,rax,0x70
    92e2:	31 ed                	xor    ebp,ebp
    92e4:	4c 8d 3d c5 da ff ff 	lea    r15,[rip+0xffffffffffffdac5]        # 6db0 <__cxa_finalize@plt+0x1ac0>
    92eb:	eb 0c                	jmp    92f9 <__cxa_finalize@plt+0x4009>
    92ed:	0f 1f 00             	nop    DWORD PTR [rax]
    92f0:	48 83 c5 70          	add    rbp,0x70
    92f4:	49 39 ee             	cmp    r14,rbp
    92f7:	74 27                	je     9320 <__cxa_finalize@plt+0x4030>
    92f9:	48 83 7c 2b 08 00    	cmp    QWORD PTR [rbx+rbp*1+0x8],0x0
    92ff:	74 ef                	je     92f0 <__cxa_finalize@plt+0x4000>
    9301:	48 8b 74 2b 18       	mov    rsi,QWORD PTR [rbx+rbp*1+0x18]
    9306:	48 85 f6             	test   rsi,rsi
    9309:	74 e5                	je     92f0 <__cxa_finalize@plt+0x4000>
    930b:	48 c1 e6 04          	shl    rsi,0x4
    930f:	74 df                	je     92f0 <__cxa_finalize@plt+0x4000>
    9311:	48 8b 7c 2b 10       	mov    rdi,QWORD PTR [rbx+rbp*1+0x10]
    9316:	ba 08 00 00 00       	mov    edx,0x8
    931b:	41 ff d7             	call   r15
    931e:	eb d0                	jmp    92f0 <__cxa_finalize@plt+0x4000>
    9320:	48 8b 84 24 c8 00 00 	mov    rax,QWORD PTR [rsp+0xc8]
    9327:	00 
    9328:	48 85 c0             	test   rax,rax
    932b:	74 1c                	je     9349 <__cxa_finalize@plt+0x4059>
    932d:	48 6b f0 70          	imul   rsi,rax,0x70
    9331:	48 85 f6             	test   rsi,rsi
    9334:	74 13                	je     9349 <__cxa_finalize@plt+0x4059>
    9336:	48 8b bc 24 c0 00 00 	mov    rdi,QWORD PTR [rsp+0xc0]
    933d:	00 
    933e:	ba 08 00 00 00       	mov    edx,0x8
    9343:	ff 15 7f 18 24 00    	call   QWORD PTR [rip+0x24187f]        # 24abc8 <__cxa_finalize@plt+0x2458d8>
    9349:	48 8d bc 24 d8 00 00 	lea    rdi,[rsp+0xd8]
    9350:	00 
    9351:	e8 5a 85 00 00       	call   118b0 <__cxa_finalize@plt+0xc5c0>
    9356:	4d 89 e7             	mov    r15,r12
    9359:	4c 89 f8             	mov    rax,r15
    935c:	48 81 c4 18 03 00 00 	add    rsp,0x318
    9363:	5b                   	pop    rbx
    9364:	41 5c                	pop    r12
    9366:	41 5d                	pop    r13
    9368:	41 5e                	pop    r14
    936a:	41 5f                	pop    r15
    936c:	5d                   	pop    rbp
    936d:	c3                   	ret
    936e:	48 8b 44 24 10       	mov    rax,QWORD PTR [rsp+0x10]
    9373:	4c 8b 64 24 18       	mov    r12,QWORD PTR [rsp+0x18]
    9378:	48 89 c5             	mov    rbp,rax
    937b:	48 81 e5 00 ff ff ff 	and    rbp,0xffffffffffffff00
    9382:	e9 01 ff ff ff       	jmp    9288 <__cxa_finalize@plt+0x3f98>
    9387:	8a 54 24 10          	mov    dl,BYTE PTR [rsp+0x10]
    938b:	eb 02                	jmp    938f <__cxa_finalize@plt+0x409f>
    938d:	b2 09                	mov    dl,0x9
    938f:	c1 e1 10             	shl    ecx,0x10
    9392:	09 c8                	or     eax,ecx
    9394:	48 c1 e0 20          	shl    rax,0x20
    9398:	48 09 c5             	or     rbp,rax
    939b:	48 c1 e5 08          	shl    rbp,0x8
    939f:	0f b6 c2             	movzx  eax,dl
    93a2:	48 09 e8             	or     rax,rbp
    93a5:	e9 de fe ff ff       	jmp    9288 <__cxa_finalize@plt+0x3f98>
    93aa:	49 89 dc             	mov    r12,rbx
    93ad:	49 89 c6             	mov    r14,rax
    93b0:	e9 02 ff ff ff       	jmp    92b7 <__cxa_finalize@plt+0x3fc7>
    93b5:	8a 5c 24 58          	mov    bl,BYTE PTR [rsp+0x58]
    93b9:	eb 02                	jmp    93bd <__cxa_finalize@plt+0x40cd>
    93bb:	b3 08                	mov    bl,0x8
    93bd:	c1 e2 10             	shl    edx,0x10
    93c0:	09 d1                	or     ecx,edx
    93c2:	48 c1 e1 20          	shl    rcx,0x20
    93c6:	48 09 c8             	or     rax,rcx
    93c9:	48 c1 e0 08          	shl    rax,0x8
    93cd:	44 0f b6 f3          	movzx  r14d,bl
    93d1:	49 09 c6             	or     r14,rax
    93d4:	e9 de fe ff ff       	jmp    92b7 <__cxa_finalize@plt+0x3fc7>
    93d9:	41 be 13 00 00 00    	mov    r14d,0x13
    93df:	4c 8b 64 24 20       	mov    r12,QWORD PTR [rsp+0x20]
    93e4:	e9 ce fe ff ff       	jmp    92b7 <__cxa_finalize@plt+0x3fc7>
    93e9:	41 be 0a 00 00 00    	mov    r14d,0xa
    93ef:	49 89 dc             	mov    r12,rbx
    93f2:	e9 c0 fe ff ff       	jmp    92b7 <__cxa_finalize@plt+0x3fc7>
    93f7:	0f 10 84 24 c0 00 00 	movups xmm0,XMMWORD PTR [rsp+0xc0]
    93fe:	00 
    93ff:	0f 10 8c 24 d0 00 00 	movups xmm1,XMMWORD PTR [rsp+0xd0]
    9406:	00 
    9407:	0f 10 94 24 e0 00 00 	movups xmm2,XMMWORD PTR [rsp+0xe0]
    940e:	00 
    940f:	41 0f 11 57 28       	movups XMMWORD PTR [r15+0x28],xmm2
    9414:	41 0f 11 4f 18       	movups XMMWORD PTR [r15+0x18],xmm1
    9419:	41 0f 11 47 08       	movups XMMWORD PTR [r15+0x8],xmm0
    941e:	49 c7 07 00 00 00 00 	mov    QWORD PTR [r15],0x0
    9425:	e9 2f ff ff ff       	jmp    9359 <__cxa_finalize@plt+0x4069>
    942a:	41 c6 47 08 0e       	mov    BYTE PTR [r15+0x8],0xe
    942f:	e9 8b fe ff ff       	jmp    92bf <__cxa_finalize@plt+0x3fcf>
    9434:	b8 0d 00 00 00       	mov    eax,0xd
    9439:	31 ed                	xor    ebp,ebp
    943b:	4d 89 f4             	mov    r12,r14
    943e:	e9 45 fe ff ff       	jmp    9288 <__cxa_finalize@plt+0x3f98>
    9443:	eb 04                	jmp    9449 <__cxa_finalize@plt+0x4159>
    9445:	eb 09                	jmp    9450 <__cxa_finalize@plt+0x4160>
    9447:	eb 00                	jmp    9449 <__cxa_finalize@plt+0x4159>
    9449:	48 89 c3             	mov    rbx,rax
    944c:	eb 0f                	jmp    945d <__cxa_finalize@plt+0x416d>
    944e:	eb 00                	jmp    9450 <__cxa_finalize@plt+0x4160>
    9450:	48 89 c3             	mov    rbx,rax
    9453:	48 8d 7c 24 50       	lea    rdi,[rsp+0x50]
    9458:	e8 b3 f8 ff ff       	call   8d10 <__cxa_finalize@plt+0x3a20>
    945d:	48 8d bc 24 c0 00 00 	lea    rdi,[rsp+0xc0]
    9464:	00 
    9465:	e8 06 f8 ff ff       	call   8c70 <__cxa_finalize@plt+0x3980>
    946a:	48 89 df             	mov    rdi,rbx
    946d:	e8 6e be ff ff       	call   52e0 <_Unwind_Resume@plt>
    9472:	0f 0b                	ud2
    9474:	eb d3                	jmp    9449 <__cxa_finalize@plt+0x4159>
    9476:	66 2e 0f 1f 84 00 00 	cs nop WORD PTR [rax+rax*1+0x0]
    947d:	00 00 00 
    9480:	53                   	push   rbx
    9481:	48 81 ec 80 00 00 00 	sub    rsp,0x80
    9488:	48 89 fb             	mov    rbx,rdi
    948b:	48 8d 7c 24 08       	lea    rdi,[rsp+0x8]
    9490:	ff 15 52 19 24 00    	call   QWORD PTR [rip+0x241952]        # 24ade8 <__cxa_finalize@plt+0x245af8>
    9496:	89 44 24 70          	mov    DWORD PTR [rsp+0x70],eax
    949a:	85 c0                	test   eax,eax
    949c:	75 56                	jne    94f4 <__cxa_finalize@plt+0x4204>
    949e:	48 8d 7c 24 08       	lea    rdi,[rsp+0x8]
    94a3:	be 01 00 00 00       	mov    esi,0x1
    94a8:	ff 15 7a 19 24 00    	call   QWORD PTR [rip+0x24197a]        # 24ae28 <__cxa_finalize@plt+0x245b38>
    94ae:	89 44 24 74          	mov    DWORD PTR [rsp+0x74],eax
    94b2:	85 c0                	test   eax,eax
    94b4:	0f 85 b2 00 00 00    	jne    956c <__cxa_finalize@plt+0x427c>
    94ba:	48 8d 74 24 08       	lea    rsi,[rsp+0x8]
    94bf:	48 89 df             	mov    rdi,rbx
    94c2:	ff 15 a8 17 24 00    	call   QWORD PTR [rip+0x2417a8]        # 24ac70 <__cxa_finalize@plt+0x245980>
    94c8:	89 44 24 78          	mov    DWORD PTR [rsp+0x78],eax
    94cc:	85 c0                	test   eax,eax
    94ce:	0f 85 10 01 00 00    	jne    95e4 <__cxa_finalize@plt+0x42f4>
    94d4:	48 8d 7c 24 08       	lea    rdi,[rsp+0x8]
    94d9:	ff 15 41 19 24 00    	call   QWORD PTR [rip+0x241941]        # 24ae20 <__cxa_finalize@plt+0x245b30>
    94df:	89 44 24 7c          	mov    DWORD PTR [rsp+0x7c],eax
    94e3:	85 c0                	test   eax,eax
    94e5:	0f 85 6e 01 00 00    	jne    9659 <__cxa_finalize@plt+0x4369>
    94eb:	48 81 c4 80 00 00 00 	add    rsp,0x80
    94f2:	5b                   	pop    rbx
    94f3:	c3                   	ret
    94f4:	48 8d 44 24 70       	lea    rax,[rsp+0x70]
    94f9:	48 89 44 24 10       	mov    QWORD PTR [rsp+0x10],rax
    94fe:	48 8d 05 1f 0b 03 00 	lea    rax,[rip+0x30b1f]        # 3a024 <__cxa_finalize@plt+0x34d34>
    9505:	48 89 44 24 18       	mov    QWORD PTR [rsp+0x18],rax
    950a:	48 8d 44 24 10       	lea    rax,[rsp+0x10]
    950f:	48 89 44 24 20       	mov    QWORD PTR [rsp+0x20],rax
    9514:	48 8d 05 d5 f5 ff ff 	lea    rax,[rip+0xfffffffffffff5d5]        # 8af0 <__cxa_finalize@plt+0x3800>
    951b:	48 89 44 24 28       	mov    QWORD PTR [rsp+0x28],rax
    9520:	48 8d 4c 24 18       	lea    rcx,[rsp+0x18]
    9525:	48 89 4c 24 30       	mov    QWORD PTR [rsp+0x30],rcx
    952a:	48 89 44 24 38       	mov    QWORD PTR [rsp+0x38],rax
    952f:	48 8d 05 5a ef 23 00 	lea    rax,[rip+0x23ef5a]        # 248490 <__cxa_finalize@plt+0x2431a0>
    9536:	48 89 44 24 40       	mov    QWORD PTR [rsp+0x40],rax
    953b:	48 c7 44 24 48 03 00 	mov    QWORD PTR [rsp+0x48],0x3
    9542:	00 00 
    9544:	48 c7 44 24 50 00 00 	mov    QWORD PTR [rsp+0x50],0x0
    954b:	00 00 
    954d:	48 8d 44 24 20       	lea    rax,[rsp+0x20]
    9552:	48 89 44 24 60       	mov    QWORD PTR [rsp+0x60],rax
    9557:	48 c7 44 24 68 02 00 	mov    QWORD PTR [rsp+0x68],0x2
    955e:	00 00 
    9560:	48 8d 35 59 ef 23 00 	lea    rsi,[rip+0x23ef59]        # 2484c0 <__cxa_finalize@plt+0x2431d0>
    9567:	e9 60 01 00 00       	jmp    96cc <__cxa_finalize@plt+0x43dc>
    956c:	48 8d 44 24 74       	lea    rax,[rsp+0x74]
    9571:	48 89 44 24 10       	mov    QWORD PTR [rsp+0x10],rax
    9576:	48 8d 05 a7 0a 03 00 	lea    rax,[rip+0x30aa7]        # 3a024 <__cxa_finalize@plt+0x34d34>
    957d:	48 89 44 24 18       	mov    QWORD PTR [rsp+0x18],rax
    9582:	48 8d 44 24 10       	lea    rax,[rsp+0x10]
    9587:	48 89 44 24 20       	mov    QWORD PTR [rsp+0x20],rax
    958c:	48 8d 05 5d f5 ff ff 	lea    rax,[rip+0xfffffffffffff55d]        # 8af0 <__cxa_finalize@plt+0x3800>
    9593:	48 89 44 24 28       	mov    QWORD PTR [rsp+0x28],rax
    9598:	48 8d 4c 24 18       	lea    rcx,[rsp+0x18]
    959d:	48 89 4c 24 30       	mov    QWORD PTR [rsp+0x30],rcx
    95a2:	48 89 44 24 38       	mov    QWORD PTR [rsp+0x38],rax
    95a7:	48 8d 05 e2 ee 23 00 	lea    rax,[rip+0x23eee2]        # 248490 <__cxa_finalize@plt+0x2431a0>
    95ae:	48 89 44 24 40       	mov    QWORD PTR [rsp+0x40],rax
    95b3:	48 c7 44 24 48 03 00 	mov    QWORD PTR [rsp+0x48],0x3
    95ba:	00 00 
    95bc:	48 c7 44 24 50 00 00 	mov    QWORD PTR [rsp+0x50],0x0
    95c3:	00 00 
    95c5:	48 8d 44 24 20       	lea    rax,[rsp+0x20]
    95ca:	48 89 44 24 60       	mov    QWORD PTR [rsp+0x60],rax
    95cf:	48 c7 44 24 68 02 00 	mov    QWORD PTR [rsp+0x68],0x2
    95d6:	00 00 
    95d8:	48 8d 35 f9 ee 23 00 	lea    rsi,[rip+0x23eef9]        # 2484d8 <__cxa_finalize@plt+0x2431e8>
